(imodel
NaiveBayesClassifier
p0
(dp1
S'positive_lines'
p2
I500
sS'vocab_length'
p3
I3401
sS'negative_lines'
p4
I500
sS'pos_corpus_length'
p5
I35663
sS'neg_corpus_length'
p6
I25184
sS'positive_count'
p7
ccollections
Counter
p8
((dp9
S'secondly'
p10
I1
sS'yellow'
p11
I3
sS'four'
p12
I9
sS'preface'
p13
I1
sS'looking'
p14
I48
sS'calculate'
p15
I1
sS'presents'
p16
I1
sS'swap'
p17
I4
sS'sorry'
p18
I2
sS'saver'
p19
I8
sS'updated'
p20
I5
sS'cruising'
p21
I1
sS'hacked'
p22
I1
sS'activation'
p23
I4
sS'regional'
p24
I1
sS'connects'
p25
I2
sS'stolen'
p26
I5
sS'updates'
p27
I12
sS'affect'
p28
I1
sS'lumia'
p29
I178
sS'disturb'
p30
I1
sS'basics'
p31
I4
sS'beam'
p32
I1
sS'customizable'
p33
I7
sS'companies'
p34
I6
sS'solution'
p35
I3
sS'convenience'
p36
I1
sS'settings'
p37
I19
sS'heading'
p38
I1
sS'clothes'
p39
I1
sS'bill'
p40
I7
sS'force'
p41
I4
sS'tired'
p42
I3
sS'warns'
p43
I1
sS'pubic'
p44
I1
sS'elegant'
p45
I5
sS'likely'
p46
I11
sS'tether'
p47
I1
sS'implemented'
p48
I1
sS'wreck'
p49
I1
sS'saved'
p50
I8
sS'fingers'
p51
I3
sS'lights'
p52
I2
sS'resilient'
p53
I1
sS'new'
p54
I103
sS'tips'
p55
I3
sS'ever'
p56
I24
sS'meg'
p57
I1
sS'mel'
p58
I1
sS'never'
p59
I57
sS'disposable'
p60
I1
sS'brainwashed'
p61
I1
sS'here'
p62
I71
sS'met'
p63
I2
sS'china'
p64
I4
sS'mes'
p65
I1
sS'active'
p66
I4
sS'interpret'
p67
I1
sS'kids'
p68
I6
sS'spokane'
p69
I1
sS'credit'
p70
I4
sS'advantages'
p71
I5
sS'spotty'
p72
I1
sS'cancellation'
p73
I1
sS'fantastic'
p74
I19
sS'magically'
p75
I1
sS'explained'
p76
I3
sS'replace'
p77
I14
sS'brought'
p78
I3
sS'specifics'
p79
I1
sS'handlebar'
p80
I1
sS'landscape'
p81
I3
sS'overheat'
p82
I1
sS'browse'
p83
I4
sS'call'
p84
I45
sS'therefore'
p85
I1
sS'recommend'
p86
I84
sS'survive'
p87
I3
sS'type'
p88
I5
sS'until'
p89
I26
sS'posting'
p90
I1
sS'wary'
p91
I1
sS'brings'
p92
I1
sS'yahoo'
p93
I5
sS'glass'
p94
I8
sS'warm'
p95
I1
sS'adult'
p96
I1
sS'hole'
p97
I1
sS'aligned'
p98
I1
sS'locked'
p99
I8
sS'room'
p100
I9
sS'setup'
p101
I17
sS'regrets'
p102
I4
sS'movies'
p103
I4
sS'concepts'
p104
I1
sS'example'
p105
I9
sS'household'
p106
I1
sS'organized'
p107
I2
sS'honey'
p108
I1
sS'caution'
p109
I1
sS'hones'
p110
I1
sS'absolute'
p111
I2
sS'preferably'
p112
I1
sS'aging'
p113
I1
sS'initiate'
p114
I1
sS'complaining'
p115
I2
sS'travel'
p116
I3
sS'feature'
p117
I57
sS'machine'
p118
I2
sS'faults'
p119
I1
sS'amazing'
p120
I43
sS'playback'
p121
I1
sS'answer'
p122
I4
sS'gaming'
p123
I3
sS'replacing'
p124
I2
sS'loyalty'
p125
I1
sS'wrong'
p126
I12
sS'curiosity'
p127
I1
sS'types'
p128
I3
sS'attaching'
p129
I1
sS'purchase'
p130
I32
sS'attempt'
p131
I2
sS'third'
p132
I10
sS'recieved'
p133
I4
sS'wino'
p134
I1
sS'keeps'
p135
I7
sS'operate'
p136
I6
sS'skyping'
p137
I2
sS'wind'
p138
I1
sS'feedback'
p139
I5
sS'androids'
p140
I8
sS'keyboard'
p141
I9
sS'responsive'
p142
I26
sS'fidelity'
p143
I1
sS'activating'
p144
I2
sS'before'
p145
I42
sS'fit'
p146
I16
sS'personal'
p147
I8
sS'fix'
p148
I7
sS'better'
p149
I132
sS'differently'
p150
I2
sS'hidden'
p151
I2
sS'fin'
p152
I1
sS'easier'
p153
I16
sS'workhorse'
p154
I1
sS'combination'
p155
I1
sS'effects'
p156
I2
sS'schools'
p157
I1
sS'downright'
p158
I1
sS'represents'
p159
I1
sS'meat'
p160
I1
sS'brightness'
p161
I8
sS'averse'
p162
I1
sS'addicted'
p163
I2
sS'went'
p164
I19
sS'side'
p165
I23
sS'mean'
p166
I8
sS'rebooted'
p167
I2
sS'adobe'
p168
I1
sS'durability'
p169
I2
sS'series'
p170
I5
sS'used'
p171
I112
sS'trading'
p172
I2
sS'forgot'
p173
I1
sS'substantially'
p174
I1
sS'message'
p175
I5
sS'whip'
p176
I1
sS'ru'
p177
I1
sS'touts'
p178
I1
sS'rs'
p179
I1
sS'sms'
p180
I3
sS'content'
p181
I4
sS're'
p182
I9
sS'ra'
p183
I1
sS'hangouts'
p184
I1
sS'surprise'
p185
I3
sS'size'
p186
I43
sS'sluggish'
p187
I1
sS'grease'
p188
I1
sS'turning'
p189
I1
sS'ian'
p190
I1
sS'sheet'
p191
I3
sS'sensors'
p192
I1
sS'greasy'
p193
I1
sS'ate'
p194
I2
sS'shipper'
p195
I2
sS'starts'
p196
I5
sS'messages'
p197
I10
sS'viewing'
p198
I2
sS'ups'
p199
I2
sS'shipped'
p200
I5
sS'walmart'
p201
I20
sS'speedy'
p202
I3
sS'isn'
p203
I2
sS'swiping'
p204
I4
sS'moving'
p205
I3
sS'loud'
p206
I13
sS'speeds'
p207
I7
sS'laggy'
p208
I2
sS'features'
p209
I102
sS'grade'
p210
I1
sS'hoot'
p211
I1
sS'wash'
p212
I1
sS'featured'
p213
I1
sS'downside'
p214
I7
sS'customization'
p215
I11
sS'clarity'
p216
I1
sS'traction'
p217
I1
sS'service'
p218
I37
sS'similarly'
p219
I3
sS'needed'
p220
I25
sS'listed'
p221
I3
sS'chugging'
p222
I1
sS'listen'
p223
I14
sS'gym'
p224
I1
sS'somewhat'
p225
I5
sS'hadnt'
p226
I2
sS'driveway'
p227
I1
sS'spoiler'
p228
I1
sS'keyword'
p229
I1
sS'older'
p230
I7
sS'enabled'
p231
I2
sS'second'
p232
I20
sS'shower'
p233
I1
sS'matter'
p234
I3
sS'fabulous'
p235
I2
sS'letters'
p236
I1
sS'feeling'
p237
I5
sS'acquisition'
p238
I1
sS'mini'
p239
I4
sS'modern'
p240
I6
sS'mind'
p241
I14
sS'mine'
p242
I11
sS'ergonomics'
p243
I1
sS'seen'
p244
I8
sS'seem'
p245
I12
sS'mins'
p246
I1
sS'tells'
p247
I2
sS'mostly'
p248
I4
sS'person'
p249
I12
sS'gripe'
p250
I1
sS'recommended'
p251
I13
sS'niece'
p252
I2
sS'shall'
p253
I1
sS'thrilled'
p254
I1
sS'wells'
p255
I1
sS'regular'
p256
I9
sS'addict'
p257
I1
sS'macbook'
p258
I2
sS'don'
p259
I5
sS'dog'
p260
I4
sS'competitors'
p261
I2
sS'definitely'
p262
I31
sS'tech'
p263
I25
sS'dos'
p264
I2
sS'came'
p265
I24
sS'saying'
p266
I6
sS'prim'
p267
I1
sS'ringtones'
p268
I2
sS'meetings'
p269
I1
sS'attempts'
p270
I1
sS'tempted'
p271
I1
sS'cheaply'
p272
I2
sS'touches'
p273
I2
sS'busy'
p274
I1
sS'layout'
p275
I8
sS'menu'
p276
I5
sS'folded'
p277
I1
sS'rico'
p278
I2
sS'theme'
p279
I1
sS'touched'
p280
I2
sS'rich'
p281
I2
sS'integrate'
p282
I3
sS'folder'
p283
I2
sS'rice'
p284
I1
sS'plate'
p285
I3
sS'tiles'
p286
I38
sS'colorful'
p287
I4
sS'beater'
p288
I1
sS'stop'
p289
I11
sS'pocket'
p290
I10
sS'tiled'
p291
I1
sS'net'
p292
I2
sS'child'
p293
I1
sS'bar'
p294
I4
sS'nicely'
p295
I9
sS'bag'
p296
I1
sS'bad'
p297
I34
sS'release'
p298
I7
sS'earp'
p299
I1
sS'blew'
p300
I1
sS'disaster'
p301
I1
sS'fair'
p302
I4
sS'clarified'
p303
I1
sS'sensitivity'
p304
I5
sS'testing'
p305
I4
sS'unexpectedly'
p306
I4
sS'pads'
p307
I1
sS'decided'
p308
I17
sS'result'
p309
I3
sS'reviewer'
p310
I3
sS'fail'
p311
I5
sS'best'
p312
I102
sS'subject'
p313
I2
sS'lumina'
p314
I6
sS'said'
p315
I30
sS'lots'
p316
I14
sS'freeze'
p317
I2
sS'future'
p318
I9
sS'sorts'
p319
I1
sS'preserve'
p320
I1
sS'men'
p321
I1
sS'personalize'
p322
I2
sS'weary'
p323
I1
sS'cut'
p324
I10
sS'extent'
p325
I2
sS'upfront'
p326
I1
sS'downgrade'
p327
I2
sS'suggested'
p328
I4
sS'accident'
p329
I2
sS'sacrificing'
p330
I1
sS'country'
p331
I5
sS'against'
p332
I3
sS'restarting'
p333
I1
sS'lookin'
p334
I1
sS'rubbed'
p335
I1
sS'installments'
p336
I1
sS'argue'
p337
I1
sS'asked'
p338
I2
sS'appeared'
p339
I1
sS'height'
p340
I2
sS'offerings'
p341
I1
sS'loaded'
p342
I5
sS'puts'
p343
I3
sS'basis'
p344
I1
sS'chrome'
p345
I2
sS'fro'
p346
I1
sS'three'
p347
I18
sS'tiny'
p348
I2
sS'restarts'
p349
I1
sS'much'
p350
I123
sS'detrimental'
p351
I1
sS'interest'
p352
I4
sS'basic'
p353
I30
sS'tutorials'
p354
I1
sS'fry'
p355
I1
sS'threw'
p356
I2
sS'website'
p357
I10
sS'life'
p358
I66
sS'deeper'
p359
I1
sS'sooooo'
p360
I1
sS'personally'
p361
I4
sS'worked'
p362
I19
sS'regretted'
p363
I1
sS'spin'
p364
I1
sS'exception'
p365
I4
sS'spontaneously'
p366
I1
sS'ugly'
p367
I1
sS'near'
p368
I6
sS'neat'
p369
I3
sS'balance'
p370
I3
sS'remembering'
p371
I1
sS'played'
p372
I4
sS'ir'
p373
I1
sS'complaint'
p374
I4
sS'conditioned'
p375
I3
sS'ii'
p376
I8
sS'player'
p377
I23
sS'cant'
p378
I76
sS'im'
p379
I134
sS'io'
p380
I2
sS'vendor'
p381
I4
sS'ie'
p382
I6
sS'id'
p383
I27
sS'trusted'
p384
I1
sS'grown'
p385
I3
sS'things'
p386
I76
sS'make'
p387
I64
sS'craigslist'
p388
I1
sS'unfortunate'
p389
I1
sS'couple'
p390
I17
sS'european'
p391
I1
sS'meets'
p392
I1
sS'kit'
p393
I6
sS'kin'
p394
I3
sS'supper'
p395
I1
sS'discoloration'
p396
I1
sS'thoughts'
p397
I1
sS'kid'
p398
I1
sS'butter'
p399
I2
sS'maximizing'
p400
I1
sS'programs'
p401
I3
sS'youre'
p402
I38
sS'materials'
p403
I2
sS'pandora'
p404
I2
sS'claims'
p405
I2
sS'paradigm'
p406
I1
sS'yours'
p407
I1
sS'left'
p408
I18
sS'yen'
p409
I1
sS'yea'
p410
I1
sS'kinks'
p411
I1
sS'bandwidth'
p412
I1
sS'shocked'
p413
I2
sS'yep'
p414
I1
sS'yes'
p415
I26
sS'yet'
p416
I21
sS'succeeding'
p417
I1
sS'previous'
p418
I7
sS'hah'
p419
I1
sS'buyers'
p420
I1
sS'enters'
p421
I1
sS'ease'
p422
I11
sS'had'
p423
I197
sS'collections'
p424
I1
sS'easy'
p425
I147
sS'whatsapp'
p426
I1
sS'has'
p427
I277
sS'quire'
p428
I1
sS'possible'
p429
I5
sS'possibly'
p430
I2
sS'background'
p431
I12
sS'performance'
p432
I18
sS'unique'
p433
I2
sS'manual'
p434
I3
sS'steps'
p435
I5
sS'right'
p436
I45
sS'old'
p437
I67
sS'deal'
p438
I59
sS'people'
p439
I56
sS'topping'
p440
I1
sS'captive'
p441
I1
sS'pain'
p442
I3
sS'bottom'
p443
I16
sS'notification'
p444
I1
sS'polluted'
p445
I1
sS'continue'
p446
I5
sS'unit'
p447
I1
sS'burn'
p448
I1
sS'shifting'
p449
I1
sS'losing'
p450
I2
sS'super'
p451
I27
sS'shaken'
p452
I1
sS'dollars'
p453
I22
sS'assault'
p454
I1
sS'magazine'
p455
I1
sS'afternoon'
p456
I1
sS'islands'
p457
I2
sS'slightly'
p458
I7
sS'automatically'
p459
I10
sS'thinner'
p460
I1
sS'whats'
p461
I5
sS'formerly'
p462
I1
sS'soo'
p463
I3
sS'son'
p464
I15
sS'down'
p465
I40
sS'sop'
p466
I1
sS'wrap'
p467
I2
sS'annoyance'
p468
I1
sS'panorama'
p469
I2
sS'support'
p470
I16
sS'constantly'
p471
I5
sS'width'
p472
I1
sS'editor'
p473
I1
sS'fraction'
p474
I4
sS'greatness'
p475
I1
sS'jane'
p476
I1
sS'music'
p477
I106
sS'launching'
p478
I2
sS'happy'
p479
I56
sS'offering'
p480
I5
sS'offer'
p481
I12
sS'gripes'
p482
I1
sS'notifications'
p483
I1
sS'fort'
p484
I1
sS'builds'
p485
I1
sS'prevents'
p486
I2
sS'inside'
p487
I3
sS'attached'
p488
I3
sS'devices'
p489
I34
sS'tell'
p490
I18
sS'smashed'
p491
I1
sS'glitchy'
p492
I3
sS'lumias'
p493
I3
sS'delete'
p494
I9
sS'shooter'
p495
I1
sS'proved'
p496
I1
sS'covers'
p497
I5
sS'drive'
p498
I24
sS'qwerty'
p499
I1
sS'exist'
p500
I3
sS'awhile'
p501
I2
sS'widows'
p502
I1
sS'commuting'
p503
I1
sS'dealer'
p504
I1
sS'floor'
p505
I1
sS'alerts'
p506
I3
sS'excel'
p507
I5
sS'handed'
p508
I4
sS'digital'
p509
I4
sS'developers'
p510
I4
sS'roll'
p511
I3
sS'intend'
p512
I1
sS'models'
p513
I4
sS'dies'
p514
I3
sS'felt'
p515
I8
sS'fell'
p516
I2
sS'invested'
p517
I2
sS'transfers'
p518
I1
sS'weekend'
p519
I2
sS'unlocking'
p520
I1
sS'died'
p521
I6
sS'jones'
p522
I1
sS'daily'
p523
I15
sS'gorilla'
p524
I3
sS'time'
p525
I101
sS'push'
p526
I2
sS'restored'
p527
I1
sS'equalizer'
p528
I1
sS'managed'
p529
I2
sS'chain'
p530
I1
sS'whoever'
p531
I1
sS'reviewers'
p532
I3
sS'activated'
p533
I4
sS'manager'
p534
I2
sS'mile'
p535
I1
sS'skin'
p536
I2
sS'primes'
p537
I1
sS'activates'
p538
I2
sS'hold'
p539
I20
sS'depend'
p540
I2
sS'fancier'
p541
I2
sS'father'
p542
I5
sS'answered'
p543
I1
sS'finally'
p544
I11
sS'smartphone'
p545
I88
sS'prepaid'
p546
I15
sS'choice'
p547
I7
sS'stays'
p548
I2
sS'exact'
p549
I4
sS'minute'
p550
I8
sS'did'
p551
I58
sS'die'
p552
I3
sS'cheapest'
p553
I4
sS'accidentally'
p554
I2
sS'teat'
p555
I1
sS'leave'
p556
I7
sS'item'
p557
I6
sS'settle'
p558
I3
sS'loads'
p559
I2
sS'round'
p560
I1
sS'dis'
p561
I1
sS'shave'
p562
I2
sS'prevent'
p563
I1
sS'droid'
p564
I10
sS'findings'
p565
I2
sS'insignificant'
p566
I1
sS'copy'
p567
I4
sS'sign'
p568
I4
sS'targets'
p569
I1
sS'headset'
p570
I4
sS'adds'
p571
I2
sS'heres'
p572
I2
sS'current'
p573
I19
sS'remembered'
p574
I1
sS'suspect'
p575
I1
sS'vandalized'
p576
I1
sS'international'
p577
I3
sS'crashing'
p578
I1
sS'era'
p579
I1
sS'slot'
p580
I12
sS'ms'
p581
I11
sS'clerk'
p582
I1
sS'understanding'
p583
I2
sS'splice'
p584
I1
sS'address'
p585
I4
sS'alone'
p586
I7
sS'along'
p587
I7
sS'wait'
p588
I7
sS'box'
p589
I28
sS'boy'
p590
I3
sS'wherever'
p591
I1
sS'boo'
p592
I1
sS'priceless'
p593
I1
sS'bearable'
p594
I1
sS'genuinely'
p595
I1
sS'teenage'
p596
I1
sS'tasks'
p597
I3
sS'love'
p598
I159
sS'prefer'
p599
I4
sS'flexibility'
p600
I2
sS'fake'
p601
I1
sS'hotels'
p602
I1
sS'everybody'
p603
I1
sS'working'
p604
I15
sS'positive'
p605
I3
sS'pluses'
p606
I1
sS'visit'
p607
I1
sS'intense'
p608
I1
sS'connector'
p609
I1
sS'opposed'
p610
I1
sS'wondering'
p611
I2
sS'thru'
p612
I4
sS'loving'
p613
I2
sS'scratched'
p614
I1
sS'introducing'
p615
I1
sS'sharing'
p616
I7
sS'afford'
p617
I2
sS'acceptable'
p618
I6
sS'visual'
p619
I1
sS'everywhere'
p620
I2
sS'scratches'
p621
I4
sS'effort'
p622
I1
sS'easiest'
p623
I1
sS'anything'
p624
I25
sS'originally'
p625
I4
sS'pretend'
p626
I1
sS'reviews'
p627
I30
sS'wallet'
p628
I1
sS'printing'
p629
I1
sS'values'
p630
I3
sS'growing'
p631
I7
sS'making'
p632
I13
sS'abandon'
p633
I1
sS'arrive'
p634
I2
sS'claim'
p635
I2
sS'crazy'
p636
I4
sS'awesome'
p637
I39
sS'confused'
p638
I3
sS'agent'
p639
I1
sS'locks'
p640
I2
sS'allowed'
p641
I3
sS'pink'
p642
I1
sS'winter'
p643
I2
sS'ping'
p644
I2
sS'till'
p645
I2
sS'pure'
p646
I3
sS'tile'
p647
I10
sS'map'
p648
I12
sS'snaps'
p649
I1
sS'designer'
p650
I2
sS'explorer'
p651
I5
sS'may'
p652
I34
sS'max'
p653
I1
sS'spot'
p654
I6
sS'expectation'
p655
I1
sS'applications'
p656
I14
sS'mac'
p657
I4
sS'explored'
p658
I1
sS'designed'
p659
I3
sS'date'
p660
I9
sS'such'
p661
I45
sS'data'
p662
I81
sS'man'
p663
I4
sS'surfing'
p664
I4
sS'natural'
p665
I3
sS'conscious'
p666
I2
sS'maybe'
p667
I18
sS'st'
p668
I11
sS'switch'
p669
I15
sS'cannot'
p670
I20
sS'deposit'
p671
I2
sS'sm'
p672
I1
sS'pulled'
p673
I1
sS'talk'
p674
I21
sS'sd'
p675
I43
sS'cute'
p676
I2
sS'disclosure'
p677
I1
sS'wishing'
p678
I1
sS'spreadsheets'
p679
I1
sS'years'
p680
I36
sS'stability'
p681
I1
sS'course'
p682
I13
sS'cuts'
p683
I1
sS'group'
p684
I3
sS'thank'
p685
I13
sS'internationally'
p686
I1
sS'interesting'
p687
I4
sS'troubles'
p688
I1
sS'hot'
p689
I4
sS'listing'
p690
I2
sS'policy'
p691
I1
sS'mail'
p692
I12
sS'deducting'
p693
I1
sS'main'
p694
I13
sS'brainer'
p695
I4
sS'instantly'
p696
I2
sS'finance'
p697
I1
sS'smarter'
p698
I2
sS'killer'
p699
I2
sS'touching'
p700
I1
sS'safari'
p701
I1
sS'sorted'
p702
I1
sS'matched'
p703
I1
sS'outweigh'
p704
I1
sS'artist'
p705
I4
sS'arrows'
p706
I1
sS'leather'
p707
I2
sS'rock'
p708
I2
sS'square'
p709
I3
sS'unlock'
p710
I13
sS'entering'
p711
I2
sS'fingertips'
p712
I1
sS'worried'
p713
I4
sS'canada'
p714
I2
sS'living'
p715
I3
sS'blu'
p716
I1
sS'seriously'
p717
I3
sS'stupid'
p718
I1
sS'internet'
p719
I45
sS'sensor'
p720
I2
sS'correct'
p721
I3
sS'lag'
p722
I13
sS'million'
p723
I1
sS'smudge'
p724
I2
sS'quite'
p725
I35
sS'bumps'
p726
I1
sS'complicated'
p727
I2
sS'hspa'
p728
I4
sS'seventy'
p729
I1
sS'bloatware'
p730
I1
sS'advance'
p731
I1
sS'backside'
p732
I6
sS'headphones'
p733
I4
sS'programming'
p734
I1
sS'downsides'
p735
I3
sS'thing'
p736
I56
sS'massive'
p737
I1
sS'router'
p738
I6
sS'pleasant'
p739
I4
sS'waited'
p740
I4
sS'saving'
p741
I6
sS'spoken'
p742
I1
sS'long'
p743
I32
sS'carry'
p744
I2
sS'sounds'
p745
I7
sS'open'
p746
I11
sS'city'
p747
I5
sS'little'
p748
I84
sS'anyone'
p749
I23
sS'draft'
p750
I1
sS'typing'
p751
I9
sS'downloadable'
p752
I2
sS'speaking'
p753
I4
sS'allegedly'
p754
I1
sS'memo'
p755
I1
sS'ridiculous'
p756
I8
sS'boyfriend'
p757
I1
sS'effective'
p758
I1
sS'gotta'
p759
I4
sS'summary'
p760
I1
sS'protected'
p761
I1
sS'were'
p762
I45
sS'college'
p763
I4
sS'files'
p764
I18
sS'nicer'
p765
I1
sS'turned'
p766
I13
sS'locations'
p767
I3
sS'sad'
p768
I1
sS'buried'
p769
I1
sS'occupied'
p770
I2
sS'sat'
p771
I1
sS'speakers'
p772
I3
sS'transcribes'
p773
I1
sS'efficient'
p774
I7
sS'answering'
p775
I1
sS'upgrading'
p776
I2
sS'aside'
p777
I3
sS'hotspot'
p778
I7
sS'note'
p779
I20
sS'potential'
p780
I2
sS'take'
p781
I46
sS'wanting'
p782
I2
sS'switching'
p783
I10
sS'channel'
p784
I2
sS'printer'
p785
I2
sS'altered'
p786
I1
sS'normal'
p787
I6
sS'track'
p788
I2
sS'knew'
p789
I11
sS'paid'
p790
I18
sS'beta'
p791
I4
sS'pair'
p792
I2
sS'pages'
p793
I3
sS'conspicuous'
p794
I1
sS'especially'
p795
I28
sS'surprising'
p796
I1
sS'average'
p797
I9
sS'sale'
p798
I8
sS'ways'
p799
I7
sS'shop'
p800
I4
sS'shot'
p801
I4
sS'show'
p802
I10
sS'bright'
p803
I10
sS'inconsistent'
p804
I1
sS'corner'
p805
I4
sS'aggressive'
p806
I1
sS'enthusiast'
p807
I2
sS'frequent'
p808
I2
sS'slow'
p809
I13
sS'farting'
p810
I1
sS'zed'
p811
I1
sS'plume'
p812
I1
sS'behind'
p813
I6
sS'going'
p814
I38
sS'black'
p815
I5
sS'hockey'
p816
I1
sS'contracts'
p817
I6
sS'assistant'
p818
I2
sS'freezing'
p819
I3
sS'nearly'
p820
I5
sS'awaiting'
p821
I1
sS'gen'
p822
I9
sS'gem'
p823
I2
sS'gel'
p824
I1
sS'prime'
p825
I5
sS'zune'
p826
I7
sS'intuitive'
p827
I15
sS'keyboards'
p828
I2
sS'morning'
p829
I2
sS'miles'
p830
I1
sS'worries'
p831
I1
sS'finishing'
p832
I1
sS'where'
p833
I32
sS'vision'
p834
I1
sS'declared'
p835
I1
sS'anyways'
p836
I3
sS'seal'
p837
I2
sS'calendar'
p838
I19
sS'wonder'
p839
I3
sS'sites'
p840
I6
sS'label'
p841
I1
sS'gage'
p842
I1
sS'enough'
p843
I32
sS'enjoys'
p844
I1
sS'reading'
p845
I11
sS'checks'
p846
I2
sS'affordable'
p847
I14
sS'jobs'
p848
I2
sS'august'
p849
I1
sS'useful'
p850
I12
sS'parental'
p851
I1
sS'screen'
p852
I191
sS'jo'
p853
I1
sS'busting'
p854
I1
sS'dates'
p855
I2
sS'many'
p856
I75
sS'disappointment'
p857
I1
sS'among'
p858
I4
sS'siii'
p859
I3
sS'venues'
p860
I1
sS'maintained'
p861
I1
sS'grants'
p862
I1
sS'anti'
p863
I3
sS'constant'
p864
I4
sS'considering'
p865
I16
sS'sensible'
p866
I1
sS'combines'
p867
I1
sS'capable'
p868
I5
sS'stretch'
p869
I1
sS'throttled'
p870
I1
sS'mart'
p871
I4
sS'dependable'
p872
I1
sS'borders'
p873
I1
sS'wants'
p874
I11
sS'educated'
p875
I1
sS'shopping'
p876
I6
sS'offered'
p877
I2
sS'laptops'
p878
I2
sS'photos'
p879
I38
sS'weeks'
p880
I12
sS'those'
p881
I53
sS'sound'
p882
I33
sS'profiles'
p883
I1
sS'cree'
p884
I1
sS'familiarizing'
p885
I1
sS'situation'
p886
I1
sS'margin'
p887
I1
sS'region'
p888
I1
sS'ive'
p889
I88
sS'iva'
p890
I1
sS'conferences'
p891
I1
sS'secondary'
p892
I1
sS'canon'
p893
I1
sS'dubious'
p894
I1
sS'middle'
p895
I1
sS'technology'
p896
I8
sS'everyday'
p897
I9
sS'different'
p898
I34
sS'shuts'
p899
I2
sS'rooting'
p900
I1
sS'pay'
p901
I49
sS'same'
p902
I51
sS'pad'
p903
I1
sS'stepped'
p904
I1
sS'dated'
p905
I2
sS'visually'
p906
I1
sS'extended'
p907
I2
sS'trivially'
p908
I1
sS'assist'
p909
I1
sS'allocation'
p910
I1
sS'running'
p911
I20
sS'wired'
p912
I1
sS'intended'
p913
I2
sS'totally'
p914
I4
sS'drain'
p915
I8
sS'intermittent'
p916
I1
sS'customized'
p917
I1
sS'costs'
p918
I12
sS'solve'
p919
I3
sS'hubby'
p920
I1
sS'amazed'
p921
I4
sS'summer'
p922
I2
sS'gdr'
p923
I3
sS'outdoor'
p924
I5
sS'being'
p925
I48
sS'money'
p926
I55
sS'slime'
p927
I1
sS'rest'
p928
I3
sS'interrupt'
p929
I1
sS'planets'
p930
I1
sS'guys'
p931
I1
sS'trimmings'
p932
I1
sS'application'
p933
I3
sS'bricks'
p934
I1
sS'extensive'
p935
I1
sS'grip'
p936
I2
sS'around'
p937
I40
sS'dark'
p938
I10
sS'darn'
p939
I1
sS'mom'
p940
I7
sS'vacuum'
p941
I1
sS'world'
p942
I17
sS'aiming'
p943
I1
sS'disappointed'
p944
I8
sS'dare'
p945
I1
sS'acquainted'
p946
I1
sS'serves'
p947
I2
sS'server'
p948
I3
sS'shutter'
p949
I4
sS'tsunami'
p950
I1
sS'either'
p951
I10
sS'served'
p952
I1
sS'inter'
p953
I1
sS'iterations'
p954
I1
sS'existing'
p955
I2
sS'imaged'
p956
I1
sS'specified'
p957
I1
sS'images'
p958
I3
sS'thinks'
p959
I3
sS'outs'
p960
I2
sS'confirm'
p961
I1
sS'tube'
p962
I1
sS'extensively'
p963
I1
sS'nook'
p964
I1
sS'critical'
p965
I2
sS'exit'
p966
I1
sS'moderate'
p967
I3
sS'biased'
p968
I1
sS'accessing'
p969
I1
sS'power'
p970
I26
sS'seconds'
p971
I6
sS'fitness'
p972
I1
sS'broken'
p973
I4
sS'roaming'
p974
I2
sS'manufacturer'
p975
I2
sS'helping'
p976
I1
sS'stone'
p977
I2
sS'ace'
p978
I1
sS'package'
p979
I4
sS'instantaneously'
p980
I2
sS'industry'
p981
I1
sS'favorite'
p982
I9
sS'drag'
p983
I1
sS'mixes'
p984
I2
sS'brainier'
p985
I1
sS'youve'
p986
I2
sS'mixed'
p987
I2
sS'luck'
p988
I2
sS'road'
p989
I2
sS'graphically'
p990
I2
sS'lands'
p991
I1
sS'image'
p992
I4
sS'freaked'
p993
I1
sS'technically'
p994
I3
sS'breath'
p995
I2
sS'hes'
p996
I3
sS'hey'
p997
I3
sS'structure'
p998
I1
sS'sealed'
p999
I1
sS'complete'
p1000
I4
sS'buggy'
p1001
I2
sS'sophisticated'
p1002
I2
sS'unreliable'
p1003
I2
sS'technologies'
p1004
I1
sS'buying'
p1005
I24
sS'pull'
p1006
I4
sS'rage'
p1007
I1
sS'robustness'
p1008
I1
sS'darker'
p1009
I1
sS'detailed'
p1010
I2
sS'gone'
p1011
I3
sS'ac'
p1012
I4
sS'ad'
p1013
I2
sS'videos'
p1014
I21
sS'exhausted'
p1015
I1
sS'certain'
p1016
I10
sS'al'
p1017
I1
sS'deep'
p1018
I1
sS'general'
p1019
I7
sS'enable'
p1020
I3
sS'au'
p1021
I1
sS'file'
p1022
I4
sS'av'
p1023
I1
sS'girlfriend'
p1024
I3
sS'watched'
p1025
I1
sS'hound'
p1026
I2
sS'cables'
p1027
I1
sS'toggling'
p1028
I1
sS'fill'
p1029
I2
sS'again'
p1030
I43
sS'floored'
p1031
I1
sS'graduate'
p1032
I1
sS'tight'
p1033
I4
sS'someones'
p1034
I1
sS'puppy'
p1035
I1
sS'important'
p1036
I17
sS'memos'
p1037
I1
sS'brands'
p1038
I2
sS'dropbox'
p1039
I4
sS'awkwardly'
p1040
I1
sS'slang'
p1041
I1
sS'tricky'
p1042
I2
sS'shipping'
p1043
I10
sS'snagged'
p1044
I2
sS'having'
p1045
I41
sS'hugely'
p1046
I1
sS'alright'
p1047
I1
sS'resolution'
p1048
I17
sS'original'
p1049
I8
sS'forget'
p1050
I5
sS'caused'
p1051
I2
sS'beware'
p1052
I1
sS'dollar'
p1053
I7
sS'browsers'
p1054
I3
sS'fairness'
p1055
I1
sS'talks'
p1056
I1
sS'children'
p1057
I2
sS'causes'
p1058
I3
sS'duplicated'
p1059
I1
sS'rd'
p1060
I6
sS'preserves'
p1061
I1
sS'hunting'
p1062
I1
sS'ty'
p1063
I4
sS'tv'
p1064
I1
sS'ts'
p1065
I2
sS'former'
p1066
I2
sS'tl'
p1067
I3
sS'th'
p1068
I6
sS'ti'
p1069
I3
sS'enjoying'
p1070
I4
sS'tc'
p1071
I3
sS'paying'
p1072
I11
sS'premium'
p1073
I8
sS'returned'
p1074
I2
sS'returning'
p1075
I3
sS'reader'
p1076
I4
sS'scout'
p1077
I1
sS'fall'
p1078
I10
sS'manageable'
p1079
I2
sS'condition'
p1080
I4
sS'hooking'
p1081
I1
sS'cable'
p1082
I12
sS'mothers'
p1083
I2
sS'celebrity'
p1084
I1
sS'laying'
p1085
I1
sS'applicable'
p1086
I1
sS'large'
p1087
I11
sS'bypassed'
p1088
I1
sS'small'
p1089
I38
sS'sank'
p1090
I1
sS'quicker'
p1091
I1
sS'sync'
p1092
I15
sS'past'
p1093
I8
sS'zero'
p1094
I2
sS'displays'
p1095
I1
sS'pass'
p1096
I8
sS'further'
p1097
I5
sS'dial'
p1098
I3
sS'stood'
p1099
I1
sS'clock'
p1100
I1
sS'section'
p1101
I1
sS'method'
p1102
I1
sS'contrast'
p1103
I4
sS'full'
p1104
I15
sS'replaceable'
p1105
I8
sS'hours'
p1106
I17
sS'operating'
p1107
I17
sS'november'
p1108
I1
sS'outdone'
p1109
I1
sS'search'
p1110
I10
sS'storefront'
p1111
I1
sS'pics'
p1112
I9
sS'prior'
p1113
I6
sS'pick'
p1114
I12
sS'action'
p1115
I2
sS'narrow'
p1116
I1
sS'via'
p1117
I9
sS'transit'
p1118
I1
sS'indoors'
p1119
I2
sS'pulls'
p1120
I2
sS'illumishield'
p1121
I1
sS'establish'
p1122
I1
sS'select'
p1123
I4
sS'readily'
p1124
I2
sS'destination'
p1125
I3
sS'texting'
p1126
I25
sS'comparing'
p1127
I3
sS'gorgeous'
p1128
I1
sS'preloaded'
p1129
I1
sS'more'
p1130
I201
sS'teen'
p1131
I1
sS'door'
p1132
I2
sS'company'
p1133
I3
sS'corrected'
p1134
I1
sS'tested'
p1135
I3
sS'fumble'
p1136
I1
sS'particular'
p1137
I2
sS'none'
p1138
I8
sS'hour'
p1139
I5
sS'science'
p1140
I1
sS'sucks'
p1141
I3
sS'installing'
p1142
I1
sS'remain'
p1143
I1
sS'sent'
p1144
I5
sS'mali'
p1145
I2
sS'knocked'
p1146
I1
sS'star'
p1147
I7
sS'vary'
p1148
I1
sS'beautiful'
p1149
I12
sS'purchases'
p1150
I2
sS'compare'
p1151
I11
sS'scan'
p1152
I1
sS'suggestions'
p1153
I1
sS'accept'
p1154
I3
sS'states'
p1155
I4
sS'minimum'
p1156
I1
sS'numbers'
p1157
I6
sS'purchased'
p1158
I37
sS'sense'
p1159
I4
sS'sharp'
p1160
I6
sS'information'
p1161
I11
sS'needs'
p1162
I33
sS'awkward'
p1163
I4
sS'flawless'
p1164
I3
sS'needy'
p1165
I1
sS'acts'
p1166
I2
sS'att'
p1167
I2
sS'dismissed'
p1168
I1
sS'maps'
p1169
I53
sS'glowing'
p1170
I1
sS'iso'
p1171
I2
sS'plans'
p1172
I10
sS'advice'
p1173
I2
sS'par'
p1174
I3
sS'connectivity'
p1175
I1
sS'familiarized'
p1176
I1
sS'coming'
p1177
I11
sS'pat'
p1178
I1
sS'response'
p1179
I4
sS'refuse'
p1180
I1
sS'crowded'
p1181
I1
sS'resetting'
p1182
I1
sS'register'
p1183
I3
sS'responsibility'
p1184
I1
sS'pleasure'
p1185
I2
sS'playing'
p1186
I18
sS'radios'
p1187
I2
sS'trade'
p1188
I1
sS'stylus'
p1189
I1
sS'radar'
p1190
I1
sS'paper'
p1191
I2
sS'through'
p1192
I41
sS'filters'
p1193
I1
sS'replies'
p1194
I1
sS'bummed'
p1195
I1
sS'zippy'
p1196
I2
sS'pens'
p1197
I1
sS'pcs'
p1198
I2
sS'late'
p1199
I2
sS'bypass'
p1200
I1
sS'nifty'
p1201
I2
sS'speech'
p1202
I3
sS'travelling'
p1203
I1
sS'someone'
p1204
I15
sS'gadget'
p1205
I2
sS'noticing'
p1206
I1
sS'walls'
p1207
I1
sS'inception'
p1208
I1
sS'buffering'
p1209
I1
sS'complain'
p1210
I9
sS'sucked'
p1211
I1
sS'easily'
p1212
I35
sS'hook'
p1213
I2
sS'always'
p1214
I38
sS'micro'
p1215
I43
sS'habits'
p1216
I1
sS'found'
p1217
I47
sS'button'
p1218
I33
sS'status'
p1219
I2
sS'everyone'
p1220
I16
sS'house'
p1221
I11
sS'fish'
p1222
I1
sS'hard'
p1223
I31
sS'reduce'
p1224
I1
sS'idea'
p1225
I7
sS'connect'
p1226
I10
sS'operation'
p1227
I3
sS'really'
p1228
I199
sS'trooper'
p1229
I1
sS'holstered'
p1230
I1
sS'print'
p1231
I2
sS'tiresome'
p1232
I1
sS'pathetic'
p1233
I2
sS'mms'
p1234
I1
sS'cockpit'
p1235
I1
sS'difficulty'
p1236
I3
sS'members'
p1237
I7
sS'imagine'
p1238
I8
sS'backed'
p1239
I1
sS'swype'
p1240
I3
sS'beginning'
p1241
I1
sS'bumped'
p1242
I1
sS'pairs'
p1243
I1
sS'friendliness'
p1244
I1
sS'finland'
p1245
I1
sS'testament'
p1246
I1
sS'major'
p1247
I13
sS'cads'
p1248
I2
sS'dont'
p1249
I168
sS'unusable'
p1250
I1
sS'utilized'
p1251
I1
sS'done'
p1252
I25
sS'firsts'
p1253
I1
sS'razor'
p1254
I2
sS'differ'
p1255
I2
sS'introduction'
p1256
I1
sS'swipe'
p1257
I4
sS'moderately'
p1258
I1
sS'least'
p1259
I13
sS'flimsy'
p1260
I3
sS'ton'
p1261
I2
sS'observations'
p1262
I1
sS'park'
p1263
I1
sS'immediate'
p1264
I1
sS'sizable'
p1265
I1
sS'tracking'
p1266
I3
sS'focusing'
p1267
I1
sS'believe'
p1268
I16
sS'compliments'
p1269
I1
sS'gotten'
p1270
I2
sS'familys'
p1271
I1
sS'supposed'
p1272
I2
sS'navigators'
p1273
I1
sS'basically'
p1274
I11
sS'beforehand'
p1275
I2
sS'pedometer'
p1276
I1
sS'aged'
p1277
I2
sS'sell'
p1278
I6
sS'built'
p1279
I20
sS'depending'
p1280
I3
sS'self'
p1281
I4
sS'majority'
p1282
I1
sS'without'
p1283
I69
sS'build'
p1284
I18
sS'transparent'
p1285
I1
sS'folders'
p1286
I2
sS'play'
p1287
I31
sS'programmers'
p1288
I1
sS'affordability'
p1289
I2
sS'unused'
p1290
I2
sS'charm'
p1291
I4
sS'plan'
p1292
I88
sS'significant'
p1293
I2
sS'services'
p1294
I10
sS'extremely'
p1295
I16
sS'cause'
p1296
I5
sS'constructed'
p1297
I2
sS'sometimes'
p1298
I16
sS'cover'
p1299
I33
sS'ks'
p1300
I1
sS'weigh'
p1301
I2
sS'charged'
p1302
I7
sS'microsoft'
p1303
I50
sS'particularly'
p1304
I2
sS'gold'
p1305
I3
sS'gates'
p1306
I1
sS'converge'
p1307
I1
sS'carefully'
p1308
I2
sS'fine'
p1309
I32
sS'find'
p1310
I76
sS'wraps'
p1311
I1
sS'nervous'
p1312
I1
sS'writes'
p1313
I2
sS'unhappy'
p1314
I1
sS'failed'
p1315
I3
sS'removable'
p1316
I14
sS'knowledgeable'
p1317
I2
sS'seller'
p1318
I8
sS'loved'
p1319
I13
sS'touchscreen'
p1320
I13
sS'weve'
p1321
I2
sS'scuff'
p1322
I3
sS'distance'
p1323
I1
sS'keepass'
p1324
I2
sS'cheaper'
p1325
I13
sS'batter'
p1326
I1
sS'valuable'
p1327
I1
sS'compass'
p1328
I3
sS'banner'
p1329
I1
sS'restart'
p1330
I4
sS'showed'
p1331
I1
sS'cry'
p1332
I2
sS'remove'
p1333
I4
sS'common'
p1334
I4
sS'locating'
p1335
I1
sS'bulky'
p1336
I1
sS'body'
p1337
I1
sS'set'
p1338
I54
sS'vine'
p1339
I1
sS'individual'
p1340
I3
sS'sen'
p1341
I1
sS'forthcoming'
p1342
I1
sS'desires'
p1343
I1
sS'currently'
p1344
I14
sS'please'
p1345
I4
sS'powerhouse'
p1346
I1
sS'fans'
p1347
I1
sS'rite'
p1348
I1
sS'wifes'
p1349
I7
sS'available'
p1350
I65
sS'zunehd'
p1351
I2
sS'complementary'
p1352
I1
sS'interfaces'
p1353
I2
sS'interface'
p1354
I23
sS'pissed'
p1355
I1
sS'last'
p1356
I31
sS'restaurant'
p1357
I1
sS'thou'
p1358
I1
sS'barely'
p1359
I2
sS'connection'
p1360
I14
sS'improves'
p1361
I1
sS'recheck'
p1362
I1
sS'alot'
p1363
I3
sS'whole'
p1364
I13
sS'load'
p1365
I7
sS'point'
p1366
I28
sS'simple'
p1367
I32
sS'except'
p1368
I19
sS'simply'
p1369
I13
sS'shutdown'
p1370
I1
sS'upgrades'
p1371
I2
sS'sammy'
p1372
I2
sS'improvement'
p1373
I4
sS'expensive'
p1374
I31
sS'platinum'
p1375
I1
sS'pallet'
p1376
I1
sS'monthly'
p1377
I12
sS'create'
p1378
I4
sS'verse'
p1379
I1
sS'dropping'
p1380
I4
sS'extravagant'
p1381
I1
sS'intrusive'
p1382
I1
sS'slips'
p1383
I1
sS'fire'
p1384
I1
sS'gas'
p1385
I1
sS'gap'
p1386
I2
sS'gal'
p1387
I1
sS'understand'
p1388
I9
sS'representative'
p1389
I1
sS'prices'
p1390
I5
sS'handling'
p1391
I2
sS'solid'
p1392
I18
sS'straight'
p1393
I13
sS'expanded'
p1394
I3
sS'budget'
p1395
I39
sS'admire'
p1396
I1
sS'receive'
p1397
I6
sS'replaced'
p1398
I5
sS'pressed'
p1399
I1
sS'evaluating'
p1400
I1
sS'leaning'
p1401
I1
sS'fun'
p1402
I17
sS'pound'
p1403
I2
sS'hoping'
p1404
I5
sS'century'
p1405
I1
sS'backing'
p1406
I2
sS'calculator'
p1407
I1
sS'drawbacks'
p1408
I5
sS'encountered'
p1409
I2
sS'itself'
p1410
I15
sS'beautifully'
p1411
I4
sS'chase'
p1412
I2
sS'funny'
p1413
I3
sS'shorten'
p1414
I1
sS'shorter'
p1415
I1
sS'rules'
p1416
I1
sS'complaints'
p1417
I9
sS'virtually'
p1418
I2
sS'copying'
p1419
I1
sS'development'
p1420
I2
sS'passwords'
p1421
I1
sS'keys'
p1422
I2
sS'yesterday'
p1423
I3
sS'moment'
p1424
I1
sS'levels'
p1425
I2
sS'purpose'
p1426
I5
sS'aggregate'
p1427
I1
sS'recent'
p1428
I5
sS'gestures'
p1429
I1
sS'task'
p1430
I7
sS'picky'
p1431
I4
sS'spent'
p1432
I7
sS'iffy'
p1433
I1
sS'picks'
p1434
I3
sS'concrete'
p1435
I1
sS'entry'
p1436
I15
sS'spend'
p1437
I17
sS'preference'
p1438
I1
sS'sims'
p1439
I3
sS'listening'
p1440
I4
sS'observed'
p1441
I1
sS'shape'
p1442
I2
sS'alternative'
p1443
I10
sS'apple'
p1444
I35
sS'letting'
p1445
I1
sS'glitches'
p1446
I1
sS'dslr'
p1447
I2
sS'readers'
p1448
I1
sS'surprises'
p1449
I1
sS'alternate'
p1450
I1
sS'signals'
p1451
I2
sS'eager'
p1452
I1
sS'snappy'
p1453
I8
sS'parents'
p1454
I4
sS'location'
p1455
I12
sS'snap'
p1456
I9
sS'input'
p1457
I2
sS'solvable'
p1458
I1
sS'excited'
p1459
I5
sS'surprised'
p1460
I18
sS'defiantly'
p1461
I1
sS'ridiculously'
p1462
I2
sS'emergency'
p1463
I3
sS'format'
p1464
I1
sS'big'
p1465
I54
sS'roadrunner'
p1466
I1
sS'bit'
p1467
I33
sS'knock'
p1468
I1
sS'semi'
p1469
I2
sS'communications'
p1470
I1
sS'individuals'
p1471
I1
sS'neatest'
p1472
I1
sS'stylish'
p1473
I7
sS'google'
p1474
I39
sS'often'
p1475
I9
sS'absolutely'
p1476
I22
sS'spring'
p1477
I1
sS'magnificent'
p1478
I1
sS'strongest'
p1479
I1
sS'palm'
p1480
I2
sS'examples'
p1481
I1
sS'mirror'
p1482
I1
sS'sprint'
p1483
I7
sS'lightning'
p1484
I3
sS'distorting'
p1485
I1
sS'facing'
p1486
I27
sS'scale'
p1487
I2
sS'culprit'
p1488
I1
sS'contacts'
p1489
I19
sS'deter'
p1490
I1
sS'decision'
p1491
I6
sS'integration'
p1492
I6
sS'per'
p1493
I8
sS'modest'
p1494
I1
sS'pen'
p1495
I4
sS'behave'
p1496
I1
sS'eliminate'
p1497
I1
sS'temple'
p1498
I1
sS'patient'
p1499
I1
sS'bc'
p1500
I2
sS'bl'
p1501
I2
sS'bi'
p1502
I1
sS'restrictive'
p1503
I2
sS'oem'
p1504
I1
sS'usb'
p1505
I24
sS'goods'
p1506
I1
sS'proven'
p1507
I1
sS'netflix'
p1508
I5
sS'extensions'
p1509
I1
sS'misplaced'
p1510
I1
sS'repair'
p1511
I2
sS'garbage'
p1512
I1
sS'techie'
p1513
I4
sS'abusive'
p1514
I1
sS'retailer'
p1515
I1
sS'seamless'
p1516
I3
sS'primarily'
p1517
I2
sS'unnerving'
p1518
I1
sS'span'
p1519
I1
sS'few'
p1520
I58
sS'spending'
p1521
I5
sS'apparently'
p1522
I2
sS'specifically'
p1523
I2
sS'custom'
p1524
I5
sS'thirdly'
p1525
I1
sS'broadcasts'
p1526
I1
sS'addicting'
p1527
I1
sS'suit'
p1528
I1
sS'forward'
p1529
I12
sS'bored'
p1530
I1
sS'opens'
p1531
I1
sS'elsewhere'
p1532
I1
sS'inches'
p1533
I4
sS'adjusting'
p1534
I2
sS'buttery'
p1535
I2
sS'hoped'
p1536
I1
sS'link'
p1537
I1
sS'line'
p1538
I30
sS'considerable'
p1539
I2
sS'posted'
p1540
I3
sS'directed'
p1541
I1
sS'biggie'
p1542
I1
sS'ur'
p1543
I2
sS'um'
p1544
I1
sS'paired'
p1545
I4
sS'un'
p1546
I1
sS'ui'
p1547
I6
sS'continuously'
p1548
I1
sS'planing'
p1549
I1
sS'natively'
p1550
I1
sS'single'
p1551
I8
sS'cure'
p1552
I1
sS'chat'
p1553
I8
sS'dragging'
p1554
I1
sS'denying'
p1555
I1
sS'codes'
p1556
I1
sS'digress'
p1557
I1
sS'plugged'
p1558
I4
sS'occasional'
p1559
I2
sS'points'
p1560
I5
sS'functionality'
p1561
I13
sS'elements'
p1562
I1
sS'prepared'
p1563
I1
sS'lens'
p1564
I2
sS'utterly'
p1565
I1
sS'aggregated'
p1566
I1
sS'ago'
p1567
I11
sS'land'
p1568
I3
sS'downcast'
p1569
I1
sS'age'
p1570
I4
sS'holes'
p1571
I1
sS'summit'
p1572
I1
sS'dot'
p1573
I1
sS'fresh'
p1574
I6
sS'hello'
p1575
I1
sS'capacities'
p1576
I1
sS'code'
p1577
I3
sS'scratch'
p1578
I3
sS'results'
p1579
I2
sS'overly'
p1580
I1
sS'enjoyable'
p1581
I2
sS'kyocera'
p1582
I3
sS'amplified'
p1583
I1
sS'backlight'
p1584
I1
sS'seemed'
p1585
I9
sS'cheapy'
p1586
I2
sS'integral'
p1587
I1
sS'concerned'
p1588
I3
sS'young'
p1589
I5
sS'send'
p1590
I19
sS'intensive'
p1591
I1
sS'blaze'
p1592
I3
sS'dislike'
p1593
I3
sS'indicating'
p1594
I1
sS'uploaded'
p1595
I1
sS'labels'
p1596
I1
sS'presently'
p1597
I1
sS'continues'
p1598
I2
sS'putting'
p1599
I7
sS'wipe'
p1600
I3
sS'categories'
p1601
I2
sS'arrange'
p1602
I3
sS'timely'
p1603
I1
sS'entire'
p1604
I4
sS'magic'
p1605
I1
sS'eve'
p1606
I2
sS'fewer'
p1607
I2
sS'try'
p1608
I29
sS'havent'
p1609
I22
sS'overshadows'
p1610
I2
sS'tinny'
p1611
I2
sS'video'
p1612
I17
sS'incidentally'
p1613
I1
sS'sweats'
p1614
I1
sS'wiggled'
p1615
I1
sS'giving'
p1616
I4
sS'enjoyed'
p1617
I4
sS'access'
p1618
I27
sS'consistently'
p1619
I2
sS'equivalent'
p1620
I1
sS'exercise'
p1621
I2
sS'scenery'
p1622
I1
sS'led'
p1623
I6
sS'exchange'
p1624
I2
sS'nonexistent'
p1625
I1
sS'let'
p1626
I25
sS'others'
p1627
I11
sS'lockable'
p1628
I1
sS'loudest'
p1629
I1
sS'bode'
p1630
I1
sS'great'
p1631
I345
sS'technical'
p1632
I2
sS'across'
p1633
I2
sS'later'
p1634
I14
sS'existent'
p1635
I1
sS'opinion'
p1636
I11
sS'implement'
p1637
I1
sS'makes'
p1638
I43
sS'involves'
p1639
I2
sS'thats'
p1640
I33
sS'composed'
p1641
I1
sS'named'
p1642
I2
sS'panicked'
p1643
I1
sS'firefox'
p1644
I2
sS'siri'
p1645
I3
sS'names'
p1646
I1
sS'tap'
p1647
I4
sS'resolutions'
p1648
I1
sS'tools'
p1649
I1
sS'confidence'
p1650
I3
sS'tar'
p1651
I1
sS'vocalize'
p1652
I1
sS'readable'
p1653
I1
sS'lube'
p1654
I1
sS'next'
p1655
I14
sS'doubt'
p1656
I3
sS'onedrive'
p1657
I2
sS'occurred'
p1658
I1
sS'folks'
p1659
I1
sS'sharply'
p1660
I1
sS'baby'
p1661
I2
sS'gladly'
p1662
I1
sS'subscription'
p1663
I1
sS'customer'
p1664
I21
sS'account'
p1665
I26
sS'integrating'
p1666
I1
sS'clients'
p1667
I1
sS'prompts'
p1668
I2
sS'tag'
p1669
I4
sS'obvious'
p1670
I3
sS'thin'
p1671
I7
sS'closing'
p1672
I1
sS'unread'
p1673
I1
sS'didnt'
p1674
I54
sS'unpacking'
p1675
I1
sS'weaker'
p1676
I1
sS'process'
p1677
I4
sS'lock'
p1678
I5
sS'slim'
p1679
I3
sS'pieces'
p1680
I3
sS'high'
p1681
I53
sS'effectively'
p1682
I2
sS'bend'
p1683
I1
sS'slip'
p1684
I3
sS'expandable'
p1685
I8
sS'bolstered'
p1686
I1
sS'native'
p1687
I1
sS'varied'
p1688
I1
sS'lame'
p1689
I2
sS'holds'
p1690
I1
sS'lamp'
p1691
I2
sS'weaken'
p1692
I1
sS'intelligent'
p1693
I1
sS'pales'
p1694
I1
sS'stock'
p1695
I4
sS'sleeker'
p1696
I1
sS'specifications'
p1697
I2
sS'waters'
p1698
I2
sS'act'
p1699
I3
sS'collection'
p1700
I4
sS'bothered'
p1701
I1
sS'blinking'
p1702
I1
sS'tier'
p1703
I2
sS'ties'
p1704
I1
sS'efficiently'
p1705
I2
sS'realized'
p1706
I6
sS'tethering'
p1707
I7
sS'backup'
p1708
I14
sS'bing'
p1709
I4
sS'counter'
p1710
I1
sS'lines'
p1711
I3
sS'shutting'
p1712
I2
sS'allow'
p1713
I9
sS'classy'
p1714
I1
sS'furious'
p1715
I1
sS'adjust'
p1716
I4
sS'produces'
p1717
I1
sS'wedding'
p1718
I1
sS'researching'
p1719
I1
sS'meter'
p1720
I1
sS'motorcycle'
p1721
I1
sS'galaxy'
p1722
I49
sS'bunch'
p1723
I3
sS'perfect'
p1724
I41
sS'lg'
p1725
I10
sS'le'
p1726
I3
sS'la'
p1727
I2
sS'chosen'
p1728
I3
sS'lo'
p1729
I2
sS'll'
p1730
I10
sS'li'
p1731
I3
sS'lt'
p1732
I3
sS'lu'
p1733
I1
sS'ls'
p1734
I1
sS'dad'
p1735
I6
sS'designs'
p1736
I2
sS'greater'
p1737
I2
sS'docs'
p1738
I1
sS'ship'
p1739
I1
sS'mention'
p1740
I4
sS'cutting'
p1741
I2
sS'instead'
p1742
I9
sS'rotation'
p1743
I1
sS'realize'
p1744
I3
sS'airports'
p1745
I1
sS'installment'
p1746
I1
sS'warned'
p1747
I1
sS'cider'
p1748
I1
sS'identified'
p1749
I1
sS'slipping'
p1750
I1
sS'safeway'
p1751
I1
sS'truth'
p1752
I2
sS'experienced'
p1753
I5
sS'activate'
p1754
I8
sS'dixie'
p1755
I1
sS'beginner'
p1756
I4
sS'doing'
p1757
I8
sS'books'
p1758
I1
sS'static'
p1759
I1
sS'salesman'
p1760
I1
sS'yous'
p1761
I1
sS'rep'
p1762
I3
sS'sandbox'
p1763
I1
sS'superbly'
p1764
I1
sS'electronics'
p1765
I4
sS'red'
p1766
I3
sS'shut'
p1767
I2
sS'wallpaper'
p1768
I1
sS'phoneand'
p1769
I2
sS'inferiority'
p1770
I1
sS'qua'
p1771
I1
sS'tied'
p1772
I2
sS'latest'
p1773
I10
sS'bleed'
p1774
I1
sS'receipts'
p1775
I1
sS'interaction'
p1776
I1
sS'automatic'
p1777
I4
sS'shells'
p1778
I1
sS'length'
p1779
I3
sS'removing'
p1780
I2
sS'retail'
p1781
I2
sS'scare'
p1782
I1
sS'plastics'
p1783
I2
sS'blown'
p1784
I7
sS'plasticy'
p1785
I2
sS'scene'
p1786
I1
sS'owned'
p1787
I21
sS'fits'
p1788
I12
sS'lol'
p1789
I3
sS'lagging'
p1790
I3
sS'owner'
p1791
I3
sS'blows'
p1792
I3
sS'reliable'
p1793
I10
sS'owning'
p1794
I1
sS'ancient'
p1795
I2
sS'reference'
p1796
I1
sS'ferris'
p1797
I1
sS'ordering'
p1798
I2
sS'behaves'
p1799
I1
sS'system'
p1800
I46
sS'lamentable'
p1801
I1
sS'messing'
p1802
I1
sS'painful'
p1803
I2
sS'stars'
p1804
I14
sS'adaptor'
p1805
I1
sS'completed'
p1806
I1
sS'completes'
p1807
I1
sS'ipad'
p1808
I7
sS'recieve'
p1809
I3
sS'bother'
p1810
I3
sS'appealing'
p1811
I1
sS'loves'
p1812
I25
sS'curves'
p1813
I1
sS'deterred'
p1814
I1
sS'comfortably'
p1815
I2
sS'dictate'
p1816
I1
sS'handsets'
p1817
I1
sS'clearly'
p1818
I8
sS'necessities'
p1819
I1
sS'depict'
p1820
I1
sS'min'
p1821
I6
sS'mic'
p1822
I2
sS'mid'
p1823
I5
sS'mix'
p1824
I1
sS'concerns'
p1825
I1
sS'sirius'
p1826
I1
sS'worldwide'
p1827
I2
sS'unless'
p1828
I13
sS'rearrange'
p1829
I1
sS'handbag'
p1830
I1
sS'segment'
p1831
I2
sS'payment'
p1832
I4
sS'stronger'
p1833
I2
sS'face'
p1834
I3
sS'graphs'
p1835
I1
sS'mechanical'
p1836
I2
sS'skinny'
p1837
I1
sS'normally'
p1838
I3
sS'fact'
p1839
I23
sS'selection'
p1840
I11
sS'text'
p1841
I40
sS'supported'
p1842
I2
sS'bring'
p1843
I3
sS'portfolio'
p1844
I1
sS'rough'
p1845
I1
sS'supporter'
p1846
I1
sS'staff'
p1847
I1
sS'inspiring'
p1848
I1
sS'pause'
p1849
I3
sS'knowledge'
p1850
I2
sS'jaw'
p1851
I1
sS'mute'
p1852
I1
sS'controls'
p1853
I6
sS'should'
p1854
I36
sS'buttons'
p1855
I25
sS'score'
p1856
I2
sS'riding'
p1857
I1
sS'inferior'
p1858
I2
sS'meant'
p1859
I2
sS'move'
p1860
I11
sS'handle'
p1861
I4
sS'listened'
p1862
I1
sS'exceptional'
p1863
I2
sS'beat'
p1864
I22
sS'beau'
p1865
I1
sS'unbeatable'
p1866
I1
sS'coworker'
p1867
I1
sS'lucky'
p1868
I2
sS'wiggle'
p1869
I1
sS'halo'
p1870
I1
sS'areas'
p1871
I2
sS'following'
p1872
I2
sS'fixes'
p1873
I3
sS'taxes'
p1874
I2
sS'calling'
p1875
I65
sS'stuff'
p1876
I15
sS'streamlined'
p1877
I1
sS'fixed'
p1878
I8
sS'looks'
p1879
I30
sS'btw'
p1880
I1
sS'exists'
p1881
I1
sS'frame'
p1882
I1
sS'theres'
p1883
I16
sS'configures'
p1884
I1
sS'packed'
p1885
I4
sS'commented'
p1886
I1
sS'purses'
p1887
I1
sS'difficulties'
p1888
I1
sS'progress'
p1889
I1
sS'youll'
p1890
I21
sS'email'
p1891
I43
sS'ends'
p1892
I1
sS'weak'
p1893
I9
sS'deliver'
p1894
I3
sS'synced'
p1895
I3
sS'optional'
p1896
I2
sS'legit'
p1897
I1
sS'figured'
p1898
I4
sS'marts'
p1899
I1
sS'etc'
p1900
I35
sS'moderators'
p1901
I1
sS'streams'
p1902
I6
sS'npr'
p1903
I2
sS'attributes'
p1904
I1
sS'otherwise'
p1905
I7
sS'comment'
p1906
I1
sS'adjusted'
p1907
I1
sS'compromising'
p1908
I1
sS'co'
p1909
I1
sS'ca'
p1910
I3
sS'cs'
p1911
I1
sS'cr'
p1912
I3
sS'cu'
p1913
I1
sS'scanner'
p1914
I1
sS'protective'
p1915
I1
sS'ag'
p1916
I1
sS'powered'
p1917
I1
sS'tremendous'
p1918
I1
sS'copies'
p1919
I1
sS'willing'
p1920
I2
sS'indicators'
p1921
I1
sS'copied'
p1922
I1
sS'waste'
p1923
I3
sS'pity'
p1924
I1
sS'arises'
p1925
I1
sS'finished'
p1926
I1
sS'angles'
p1927
I1
sS'graphics'
p1928
I6
sS'multi'
p1929
I3
sS'plain'
p1930
I2
sS'appearance'
p1931
I2
sS'value'
p1932
I35
sS'ar'
p1933
I1
sS'cox'
p1934
I1
sS'ultra'
p1935
I1
sS'frustrating'
p1936
I7
sS'noticed'
p1937
I3
sS've'
p1938
I3
sS'manually'
p1939
I5
sS'almost'
p1940
I25
sS'unction'
p1941
I1
sS'insanely'
p1942
I2
sS'site'
p1943
I5
sS'helped'
p1944
I3
sS'vs'
p1945
I5
sS'productivity'
p1946
I1
sS'adapters'
p1947
I1
sS'painstaking'
p1948
I1
sS'android'
p1949
I199
sS'ball'
p1950
I1
sS'upon'
p1951
I1
sS'ion'
p1952
I4
sS'tighter'
p1953
I1
sS'pleasantly'
p1954
I2
sS'off'
p1955
I69
sS'center'
p1956
I3
sS'nevertheless'
p1957
I1
sS'thought'
p1958
I27
sS'exceedingly'
p1959
I1
sS'command'
p1960
I1
sS'sets'
p1961
I1
sS'comparisons'
p1962
I1
sS'audio'
p1963
I11
sS'usual'
p1964
I3
sS'lest'
p1965
I1
sS'stores'
p1966
I3
sS'less'
p1967
I48
sS'moments'
p1968
I1
sS'fingerprint'
p1969
I2
sS'souped'
p1970
I1
sS'stored'
p1971
I4
sS'rooms'
p1972
I1
sS'tone'
p1973
I2
sS'paul'
p1974
I1
sS'nokias'
p1975
I24
sS'flashlight'
p1976
I4
sS'web'
p1977
I35
sS'generous'
p1978
I1
sS'gongs'
p1979
I1
sS'ads'
p1980
I1
sS'podcast'
p1981
I4
sS'microsd'
p1982
I16
sS'rebate'
p1983
I3
sS'add'
p1984
I21
sS'crack'
p1985
I2
sS'ado'
p1986
I1
sS'match'
p1987
I4
sS'increased'
p1988
I1
sS'worlds'
p1989
I1
sS'checking'
p1990
I8
sS'fyi'
p1991
I3
sS'dryer'
p1992
I1
sS'five'
p1993
I6
sS'password'
p1994
I3
sS'pier'
p1995
I1
sS'insert'
p1996
I1
sS'trash'
p1997
I1
sS'crisp'
p1998
I2
sS'like'
p1999
I271
sS'success'
p2000
I2
sS'admitted'
p2001
I1
sS'become'
p2002
I7
sS'works'
p2003
I113
sS'soft'
p2004
I3
sS'replacement'
p2005
I11
sS'accessible'
p2006
I4
sS'gaining'
p2007
I1
sS'alive'
p2008
I3
sS'daylight'
p2009
I2
sS'choosing'
p2010
I1
sS'recommendation'
p2011
I1
sS'proper'
p2012
I3
sS'transport'
p2013
I2
sS'happens'
p2014
I4
sS'literally'
p2015
I3
sS'avoid'
p2016
I1
sS'does'
p2017
I117
sS'economical'
p2018
I2
sS'assuming'
p2019
I1
sS'perfectionist'
p2020
I1
sS'blurry'
p2021
I3
sS'tmo'
p2022
I2
sS'slower'
p2023
I1
sS'noise'
p2024
I1
sS'slight'
p2025
I8
sS'pressure'
p2026
I1
sS'although'
p2027
I24
sS'worthy'
p2028
I1
sS'zips'
p2029
I1
sS'periodically'
p2030
I1
sS'simpler'
p2031
I1
sS'sister'
p2032
I1
sS'lifestyle'
p2033
I2
sS'flaky'
p2034
I1
sS'whistles'
p2035
I7
sS'introduced'
p2036
I2
sS'swimming'
p2037
I1
sS'smarts'
p2038
I1
sS'sharpness'
p2039
I1
sS'commitment'
p2040
I1
sS'guard'
p2041
I1
sS'doesnt'
p2042
I57
sS'female'
p2043
I1
sS'theyd'
p2044
I1
sS'roads'
p2045
I1
sS'advert'
p2046
I1
sS'brides'
p2047
I1
sS'spots'
p2048
I1
sS'bump'
p2049
I2
sS'frustration'
p2050
I2
sS'biggest'
p2051
I7
sS'yrs'
p2052
I2
sS'touted'
p2053
I1
sS'function'
p2054
I17
sS'buy'
p2055
I77
sS'brand'
p2056
I13
sS'holstering'
p2057
I2
sS'pixie'
p2058
I1
sS'construction'
p2059
I5
sS'delivers'
p2060
I1
sS'editing'
p2061
I6
sS'bug'
p2062
I3
sS'partially'
p2063
I1
sS'count'
p2064
I4
sS'wise'
p2065
I2
sS'places'
p2066
I3
sS'ecosystem'
p2067
I3
sS'official'
p2068
I3
sS'lync'
p2069
I2
sS'flip'
p2070
I6
sS'placed'
p2071
I6
sS'problem'
p2072
I43
sS'minutes'
p2073
I15
sS'replying'
p2074
I1
sS'pin'
p2075
I5
sS'recognize'
p2076
I1
sS'handset'
p2077
I6
sS'pic'
p2078
I1
sS'ins'
p2079
I2
sS'sibling'
p2080
I2
sS'ind'
p2081
I1
sS'inc'
p2082
I2
sS'compared'
p2083
I25
sS'hobbling'
p2084
I1
sS'detail'
p2085
I2
sS'lately'
p2086
I1
sS'compares'
p2087
I4
sS'details'
p2088
I3
sS'dresser'
p2089
I1
sS'chance'
p2090
I4
sS'godsend'
p2091
I2
sS'searches'
p2092
I2
sS'yelp'
p2093
I1
sS'starting'
p2094
I4
sS'lasted'
p2095
I2
sS'cpu'
p2096
I3
sS'compete'
p2097
I1
sS'res'
p2098
I2
sS'reliability'
p2099
I1
sS'augmented'
p2100
I3
sS'limited'
p2101
I25
sS'hats'
p2102
I1
sS'saves'
p2103
I3
sS'sleek'
p2104
I6
sS'hating'
p2105
I1
sS'hate'
p2106
I2
sS'consider'
p2107
I8
sS'chinese'
p2108
I3
sS'whatsoever'
p2109
I1
sS'under'
p2110
I19
sS'messenger'
p2111
I1
sS'worth'
p2112
I27
sS'risk'
p2113
I3
sS'sdcard'
p2114
I2
sS'every'
p2115
I46
sS'jack'
p2116
I3
sS'vastly'
p2117
I1
sS'doubts'
p2118
I1
sS'supports'
p2119
I5
sS'upload'
p2120
I6
sS'integrated'
p2121
I3
sS'flashy'
p2122
I1
sS'enjoy'
p2123
I6
sS'dwindled'
p2124
I1
sS'parted'
p2125
I2
sS'bicycle'
p2126
I1
sS'phones'
p2127
I255
sS'direct'
p2128
I1
sS'louder'
p2129
I3
sS'estimated'
p2130
I1
sS'specs'
p2131
I11
sS'machines'
p2132
I1
sS'tactile'
p2133
I1
sS'blue'
p2134
I5
sS'established'
p2135
I1
sS'hide'
p2136
I1
sS'microsofts'
p2137
I4
sS'incompatible'
p2138
I1
sS'specification'
p2139
I1
sS'selected'
p2140
I1
sS'supplied'
p2141
I1
sS'above'
p2142
I6
sS'endorse'
p2143
I1
sS'zoomed'
p2144
I1
sS'suppose'
p2145
I2
sS'reluctant'
p2146
I1
sS'told'
p2147
I3
sS'kicked'
p2148
I1
sS'hundreds'
p2149
I2
sS'protection'
p2150
I3
sS'studio'
p2151
I1
sS'obtained'
p2152
I1
sS'kudos'
p2153
I1
sS'daughter'
p2154
I18
sS'forum'
p2155
I1
sS'items'
p2156
I3
sS'leaves'
p2157
I1
sS'changed'
p2158
I9
sS'proportioned'
p2159
I1
sS'itunes'
p2160
I9
sS'browsing'
p2161
I10
sS'prints'
p2162
I2
sS'highly'
p2163
I30
sS'glance'
p2164
I4
sS'total'
p2165
I6
sS'plot'
p2166
I1
sS'negative'
p2167
I2
sS'chargers'
p2168
I1
sS'noting'
p2169
I2
sS'preview'
p2170
I1
sS'creates'
p2171
I1
sS'separated'
p2172
I1
sS'aware'
p2173
I4
sS'phone'
p2174
I1741
sS'excellent'
p2175
I38
sS'continual'
p2176
I1
sS'outdated'
p2177
I4
sS'must'
p2178
I16
sS'shoot'
p2179
I4
sS'mg'
p2180
I1
sS'word'
p2181
I8
sS'mb'
p2182
I16
sS'mo'
p2183
I13
sS'mi'
p2184
I3
sS'refusing'
p2185
I1
sS'mu'
p2186
I2
sS'ere'
p2187
I1
sS'mp'
p2188
I31
sS'install'
p2189
I13
sS'upscale'
p2190
I1
sS'estate'
p2191
I1
sS'dolphin'
p2192
I1
sS'gadgets'
p2193
I3
sS'appointment'
p2194
I1
sS'times'
p2195
I24
sS'attract'
p2196
I1
sS'guarantee'
p2197
I1
sS'end'
p2198
I58
sS'recovery'
p2199
I1
sS'carriers'
p2200
I2
sS'provide'
p2201
I6
sS'sitting'
p2202
I1
sS'nuts'
p2203
I1
sS'far'
p2204
I67
sS'imbedded'
p2205
I1
sS'rewind'
p2206
I1
sS'gate'
p2207
I1
sS'charging'
p2208
I10
sS'pizza'
p2209
I1
sS'badly'
p2210
I1
sS'earlier'
p2211
I2
sS'movable'
p2212
I1
sS'millimeter'
p2213
I1
sS'lay'
p2214
I1
sS'law'
p2215
I4
sS'appreciate'
p2216
I5
sS'shucks'
p2217
I1
sS'nascent'
p2218
I1
sS'enter'
p2219
I4
sS'fan'
p2220
I14
sS'order'
p2221
I18
sS'office'
p2222
I16
sS'satisfied'
p2223
I8
sS'finest'
p2224
I1
sS'innovative'
p2225
I2
sS'satisfies'
p2226
I1
sS'nets'
p2227
I1
sS'difference'
p2228
I9
sS'somewhere'
p2229
I1
sS'highlights'
p2230
I1
sS'expectations'
p2231
I9
sS'imo'
p2232
I2
sS'writing'
p2233
I3
sS'compelling'
p2234
I2
sS'eventually'
p2235
I3
sS'thea'
p2236
I1
sS'break'
p2237
I9
sS'band'
p2238
I3
sS'bang'
p2239
I6
sS'mvno'
p2240
I2
sS'bank'
p2241
I4
sS'regularly'
p2242
I6
sS'fonts'
p2243
I1
sS'rocks'
p2244
I1
sS'reasonable'
p2245
I8
sS'each'
p2246
I13
sS'feeds'
p2247
I1
sS'bells'
p2248
I9
sS'lasting'
p2249
I2
sS'fairly'
p2250
I9
sS'dumping'
p2251
I1
sS'magneto'
p2252
I1
sS'tip'
p2253
I1
sS'juggling'
p2254
I1
sS'slew'
p2255
I1
sS'whining'
p2256
I1
sS'network'
p2257
I41
sS'driving'
p2258
I4
sS'god'
p2259
I2
sS'cameras'
p2260
I11
sS'hooked'
p2261
I1
sS'laid'
p2262
I2
sS'sane'
p2263
I1
sS'mayday'
p2264
I1
sS'got'
p2265
I75
sS'newly'
p2266
I1
sS'forth'
p2267
I2
sS'free'
p2268
I75
sS'standard'
p2269
I9
sS'nth'
p2270
I1
sS'wanted'
p2271
I30
sS'created'
p2272
I1
sS'inexpensive'
p2273
I10
sS'days'
p2274
I43
sS'priorities'
p2275
I1
sS'local'
p2276
I11
sS'filter'
p2277
I1
sS'lousy'
p2278
I2
sS'licked'
p2279
I1
sS'heck'
p2280
I2
sS'onto'
p2281
I5
sS'rang'
p2282
I1
sS'already'
p2283
I23
sS'render'
p2284
I1
sS'puck'
p2285
I1
sS'primary'
p2286
I3
sS'hearing'
p2287
I1
sS'rant'
p2288
I1
sS'another'
p2289
I47
sS'categorize'
p2290
I1
sS'thick'
p2291
I2
sS'realistically'
p2292
I1
sS'electronic'
p2293
I1
sS'researched'
p2294
I1
sS'rated'
p2295
I3
sS'sarcasm'
p2296
I1
sS'top'
p2297
I22
sS'plentiful'
p2298
I2
sS'rates'
p2299
I1
sS'too'
p2300
I74
sS'inconvenient'
p2301
I1
sS'dogs'
p2302
I1
sS'tod'
p2303
I2
sS'toe'
p2304
I2
sS'urban'
p2305
I1
sS'ceiling'
p2306
I1
sS'tool'
p2307
I3
sS'serve'
p2308
I1
sS'took'
p2309
I22
sS'target'
p2310
I2
sS'frankly'
p2311
I1
sS'citibank'
p2312
I1
sS'bloated'
p2313
I1
sS'ebay'
p2314
I2
sS'iron'
p2315
I1
sS'perspective'
p2316
I1
sS'bridge'
p2317
I3
sS'ran'
p2318
I2
sS'navigate'
p2319
I8
sS'ram'
p2320
I18
sS'talking'
p2321
I6
sS'relatively'
p2322
I2
sS'forced'
p2323
I1
sS'strength'
p2324
I4
sS'convenient'
p2325
I5
sS'latter'
p2326
I1
sS'snow'
p2327
I3
sS'contact'
p2328
I6
sS'though'
p2329
I42
sS'extending'
p2330
I1
sS'optimized'
p2331
I2
sS'plenty'
p2332
I12
sS'phase'
p2333
I1
sS'grave'
p2334
I1
sS'sub'
p2335
I2
sS'treats'
p2336
I1
sS'metal'
p2337
I5
sS'deeply'
p2338
I1
sS'job'
p2339
I15
sS'overpriced'
p2340
I1
sS'contacted'
p2341
I1
sS'reorganize'
p2342
I1
sS'random'
p2343
I2
sS'colors'
p2344
I8
sS'radio'
p2345
I14
sS'nephew'
p2346
I2
sS'availability'
p2347
I2
sS'painfully'
p2348
I1
sS'spite'
p2349
I1
sS'implementation'
p2350
I1
sS'situations'
p2351
I2
sS'hrs'
p2352
I1
sS'adequate'
p2353
I6
sS'oct'
p2354
I1
sS'borrowed'
p2355
I1
sS'di'
p2356
I1
sS'watch'
p2357
I6
sS'fluid'
p2358
I5
sS'preferred'
p2359
I4
sS'yielded'
p2360
I1
sS'criticized'
p2361
I1
sS'amazon'
p2362
I62
sS'despite'
p2363
I13
sS'report'
p2364
I4
sS'frying'
p2365
I1
sS'nasty'
p2366
I1
sS'runs'
p2367
I19
sS'countries'
p2368
I2
sS'twice'
p2369
I5
sS'shots'
p2370
I8
sS'steal'
p2371
I1
sS'thanks'
p2372
I19
sS'optimus'
p2373
I6
sS'miserably'
p2374
I1
sS'resist'
p2375
I2
sS'depends'
p2376
I1
sS'capacity'
p2377
I5
sS'away'
p2378
I31
sS'mud'
p2379
I1
sS'unable'
p2380
I4
sS'finger'
p2381
I4
sS'hopefully'
p2382
I9
sS'drawn'
p2383
I1
sS'approach'
p2384
I1
sS'rudimentary'
p2385
I1
sS'terms'
p2386
I8
sS'bargains'
p2387
I1
sS'modify'
p2388
I1
sS'handful'
p2389
I2
sS'packaged'
p2390
I2
sS'however'
p2391
I41
sS'wear'
p2392
I3
sS'wp'
p2393
I50
sS'news'
p2394
I6
sS'improve'
p2395
I1
sS'received'
p2396
I15
sS'protect'
p2397
I1
sS'fault'
p2398
I3
sS'ill'
p2399
I21
sS'games'
p2400
I33
sS'gamer'
p2401
I3
sS'receives'
p2402
I1
sS'receiver'
p2403
I1
sS'exceeds'
p2404
I2
sS'requests'
p2405
I1
sS'expense'
p2406
I2
sS'com'
p2407
I7
sS'lenses'
p2408
I2
sS'con'
p2409
I7
sS'eyesight'
p2410
I2
sS'tough'
p2411
I4
sS'royal'
p2412
I1
sS'tons'
p2413
I10
sS'refill'
p2414
I2
sS'speak'
p2415
I2
sS'conference'
p2416
I4
sS'bathroom'
p2417
I1
sS'petty'
p2418
I1
sS'exceeded'
p2419
I4
sS'been'
p2420
I80
sS'quickly'
p2421
I20
sS'beep'
p2422
I1
sS'confident'
p2423
I1
sS'refurbished'
p2424
I2
sS'expected'
p2425
I18
sS'flexible'
p2426
I1
sS'dozens'
p2427
I1
sS'families'
p2428
I1
sS'relaxing'
p2429
I1
sS'occurrences'
p2430
I1
sS'catch'
p2431
I4
sS'comfortable'
p2432
I5
sS'applied'
p2433
I1
sS'save'
p2434
I15
sS'launcher'
p2435
I2
sS'air'
p2436
I3
sS'aim'
p2437
I1
sS'dept'
p2438
I1
sS'formatting'
p2439
I1
sS'stopping'
p2440
I1
sS'aid'
p2441
I1
sS'voice'
p2442
I35
sS'mistake'
p2443
I5
sS'cons'
p2444
I36
sS'allows'
p2445
I13
sS'accessories'
p2446
I9
sS'expenses'
p2447
I1
sS'brake'
p2448
I1
sS'experience'
p2449
I37
sS'confirmed'
p2450
I1
sS'perform'
p2451
I3
sS'suggest'
p2452
I9
sS'syncs'
p2453
I7
sS'beside'
p2454
I1
sS'drawback'
p2455
I9
sS'several'
p2456
I20
sS'advertising'
p2457
I1
sS'wheel'
p2458
I1
sS'metropcs'
p2459
I7
sS'screw'
p2460
I3
sS'social'
p2461
I11
sS'hand'
p2462
I33
sS'documents'
p2463
I4
sS'positives'
p2464
I2
sS'nit'
p2465
I1
sS'cycle'
p2466
I3
sS'mentioning'
p2467
I1
sS'kept'
p2468
I2
sS'lcd'
p2469
I2
sS'tho'
p2470
I3
sS'savings'
p2471
I3
sS'client'
p2472
I1
sS'greatest'
p2473
I8
sS'mother'
p2474
I6
sS'photo'
p2475
I11
sS'laptop'
p2476
I7
sS'quotes'
p2477
I1
sS'thumbs'
p2478
I1
sS'vices'
p2479
I1
sS'adding'
p2480
I3
sS'eli'
p2481
I1
sS'spread'
p2482
I2
sS'advanced'
p2483
I4
sS'zillion'
p2484
I1
sS'humanity'
p2485
I1
sS'gave'
p2486
I7
sS'usable'
p2487
I2
sS'boxes'
p2488
I3
sS'burns'
p2489
I1
sS'rumor'
p2490
I1
sS'apart'
p2491
I3
sS'gift'
p2492
I10
sS'glitch'
p2493
I2
sS'zoom'
p2494
I3
sS'xbox'
p2495
I9
sS'specific'
p2496
I3
sS'overrated'
p2497
I1
sS'night'
p2498
I10
sS'security'
p2499
I2
sS'whomever'
p2500
I1
sS'hassle'
p2501
I1
sS'advertise'
p2502
I1
sS'theyre'
p2503
I5
sS'tutorial'
p2504
I1
sS'confusing'
p2505
I3
sS'humor'
p2506
I1
sS'phenomenal'
p2507
I1
sS'ear'
p2508
I2
sS'comments'
p2509
I3
sS'everything'
p2510
I76
sS'asking'
p2511
I1
sS'beating'
p2512
I1
sS'christmas'
p2513
I7
sS'cord'
p2514
I3
sS'core'
p2515
I13
sS'deleted'
p2516
I4
sS'hsn'
p2517
I8
sS'discount'
p2518
I2
sS'newcomer'
p2519
I1
sS'post'
p2520
I1
sS'properties'
p2521
I1
sS'deletes'
p2522
I1
sS'plug'
p2523
I7
sS'limitation'
p2524
I3
sS'months'
p2525
I21
sS'trustworthy'
p2526
I1
sS'plus'
p2527
I30
sS'gingerbread'
p2528
I2
sS'efforts'
p2529
I1
sS'froze'
p2530
I1
sS'presence'
p2531
I1
sS'wasting'
p2532
I1
sS'pays'
p2533
I1
sS'device'
p2534
I76
sS'pantalla'
p2535
I1
sS'cubicle'
p2536
I1
sS'nuisance'
p2537
I1
sS'strangely'
p2538
I1
sS'rely'
p2539
I1
sS'wal'
p2540
I4
sS'undiscovered'
p2541
I1
sS'sunlight'
p2542
I3
sS'lags'
p2543
I3
sS'gig'
p2544
I6
sS'stuck'
p2545
I7
sS'accordingly'
p2546
I1
sS'quirks'
p2547
I1
sS'quirky'
p2548
I1
sS'wat'
p2549
I1
sS'head'
p2550
I3
sS'medium'
p2551
I2
sS'becoming'
p2552
I1
sS'differences'
p2553
I5
sS'wireless'
p2554
I6
sS'heat'
p2555
I2
sS'hear'
p2556
I7
sS'astonished'
p2557
I1
sS'true'
p2558
I8
sS'reset'
p2559
I10
sS'versions'
p2560
I5
sS'mtp'
p2561
I3
sS'bargain'
p2562
I7
sS'crystal'
p2563
I2
sS'mails'
p2564
I2
sS'promises'
p2565
I1
sS'computing'
p2566
I1
sS'evidence'
p2567
I1
sS'sometime'
p2568
I1
sS'reenter'
p2569
I1
sS'annoying'
p2570
I10
sS'trip'
p2571
I5
sS'physical'
p2572
I2
sS'ni'
p2573
I3
sS'techs'
p2574
I2
sS'no'
p2575
I281
sS'na'
p2576
I1
sS'nb'
p2577
I4
sS'nd'
p2578
I10
sS'ne'
p2579
I1
sS'reality'
p2580
I4
sS'setting'
p2581
I8
sS'holding'
p2582
I6
sS'test'
p2583
I4
sS'tie'
p2584
I1
sS'nu'
p2585
I2
sS'tic'
p2586
I2
sS'scored'
p2587
I1
sS'picture'
p2588
I27
sS'reconsider'
p2589
I1
sS'helps'
p2590
I7
sS'update'
p2591
I54
sS'faster'
p2592
I16
sS'bullet'
p2593
I1
sS'together'
p2594
I6
sS'vietnam'
p2595
I1
sS'reception'
p2596
I9
sS'serious'
p2597
I1
sS'songs'
p2598
I7
sS'rom'
p2599
I1
sS'switched'
p2600
I8
sS'global'
p2601
I2
sS'alternatives'
p2602
I4
sS'focus'
p2603
I7
sS'snip'
p2604
I1
sS'ice'
p2605
I1
sS'spartan'
p2606
I1
sS'remarkably'
p2607
I1
sS'creative'
p2608
I1
sS'rot'
p2609
I2
sS'telemarketing'
p2610
I1
sS'row'
p2611
I1
sS'certainly'
p2612
I10
sS'essentials'
p2613
I2
sS'hump'
p2614
I1
sS'flash'
p2615
I93
sS'gigs'
p2616
I6
sS'environment'
p2617
I3
sS'charge'
p2618
I33
sS'compensate'
p2619
I1
sS'charles'
p2620
I1
sS'advantage'
p2621
I5
sS'keeping'
p2622
I8
sS'seemingly'
p2623
I2
sS'entries'
p2624
I2
sS'trouble'
p2625
I8
sS'blast'
p2626
I2
sS'cool'
p2627
I20
sS'aggressively'
p2628
I1
sS'impressive'
p2629
I7
sS'level'
p2630
I16
sS'turns'
p2631
I3
sS'fragile'
p2632
I1
sS'brother'
p2633
I1
sS'standards'
p2634
I1
sS'quick'
p2635
I23
sS'guy'
p2636
I6
sS'upper'
p2637
I2
sS'plummet'
p2638
I1
sS'htc'
p2639
I14
sS'regret'
p2640
I4
sS'bravo'
p2641
I1
sS'discover'
p2642
I1
sS'slowed'
p2643
I1
sS'cost'
p2644
I39
sS'voucher'
p2645
I2
sS'port'
p2646
I4
sS'stands'
p2647
I2
sS'adjustable'
p2648
I5
sS'assistance'
p2649
I1
sS'mall'
p2650
I1
sS'thicker'
p2651
I3
sS'goes'
p2652
I10
sS'shared'
p2653
I3
sS'appeal'
p2654
I1
sS'satisfy'
p2655
I1
sS'supporting'
p2656
I1
sS'predicting'
p2657
I1
sS'prescriptions'
p2658
I1
sS'learn'
p2659
I17
sS'water'
p2660
I3
sS'downloaded'
p2661
I6
sS'groups'
p2662
I1
sS'crippled'
p2663
I1
sS'hoops'
p2664
I1
sS'appears'
p2665
I4
sS'change'
p2666
I32
sS'buck'
p2667
I6
sS'incoming'
p2668
I4
sS'noticeable'
p2669
I4
sS'timings'
p2670
I1
sS'usually'
p2671
I11
sS'weird'
p2672
I1
sS'navigation'
p2673
I28
sS'regardless'
p2674
I1
sS'extra'
p2675
I24
sS'problematic'
p2676
I1
sS'keeper'
p2677
I2
sS'marker'
p2678
I1
sS'pony'
p2679
I1
sS'rarely'
p2680
I2
sS'market'
p2681
I28
sS'projector'
p2682
I1
sS'stated'
p2683
I3
sS'sports'
p2684
I1
sS'msn'
p2685
I3
sS'live'
p2686
I43
sS'iphone'
p2687
I104
sS'memory'
p2688
I34
sS'today'
p2689
I7
sS'towers'
p2690
I1
sS'share'
p2691
I9
sS'dismal'
p2692
I1
sS'smudges'
p2693
I2
sS'cases'
p2694
I8
sS'prepay'
p2695
I1
sS'graphic'
p2696
I1
sS'car'
p2697
I11
sS'cap'
p2698
I1
sS'cat'
p2699
I1
sS'flagship'
p2700
I2
sS'hardest'
p2701
I1
sS'renders'
p2702
I1
sS'hope'
p2703
I12
sS'cam'
p2704
I3
sS'cal'
p2705
I2
sS'slightest'
p2706
I2
sS'cad'
p2707
I1
sS'streak'
p2708
I1
sS'heart'
p2709
I1
sS'dedicated'
p2710
I5
sS'performer'
p2711
I1
sS'figure'
p2712
I12
sS'amazons'
p2713
I1
sS'expanding'
p2714
I1
sS'chip'
p2715
I6
sS'heard'
p2716
I7
sS'dropped'
p2717
I14
sS'requirements'
p2718
I1
sS'fortunately'
p2719
I3
sS'means'
p2720
I18
sS'snapdragon'
p2721
I4
sS'write'
p2722
I8
sS'fourth'
p2723
I1
sS'familiar'
p2724
I9
sS'ensure'
p2725
I2
sS'speaks'
p2726
I1
sS'nonstop'
p2727
I2
sS'product'
p2728
I33
sS'crashes'
p2729
I1
sS'huge'
p2730
I16
sS'sacrifice'
p2731
I1
sS'crashed'
p2732
I1
sS'birthday'
p2733
I5
sS'remember'
p2734
I7
sS'liquid'
p2735
I1
sS'autos'
p2736
I1
sS'whenever'
p2737
I4
sS'ghz'
p2738
I9
sS'insides'
p2739
I1
sS'typical'
p2740
I3
sS'refund'
p2741
I2
sS'exclusive'
p2742
I6
sS'indeed'
p2743
I6
sS'werent'
p2744
I2
sS'mainly'
p2745
I3
sS'playful'
p2746
I1
sS'ended'
p2747
I5
sS'tablets'
p2748
I5
sS'still'
p2749
I106
sS'birds'
p2750
I1
sS'needing'
p2751
I1
sS'birthdays'
p2752
I1
sS'platform'
p2753
I13
sS'window'
p2754
I9
sS'offers'
p2755
I9
sS'happened'
p2756
I5
sS'non'
p2757
I16
sS'moms'
p2758
I1
sS'conversations'
p2759
I2
sS'warranted'
p2760
I1
sS'half'
p2761
I15
sS'not'
p2762
I465
sS'discuss'
p2763
I2
sS'nor'
p2764
I4
sS'permissions'
p2765
I1
sS'wont'
p2766
I35
sS'term'
p2767
I3
sS'name'
p2768
I4
sS'january'
p2769
I2
sS'drop'
p2770
I12
sS'debating'
p2771
I2
sS'possibilities'
p2772
I1
sS'synchronize'
p2773
I1
sS'el'
p2774
I1
sS'en'
p2775
I1
sS'significantly'
p2776
I4
sS'hiccups'
p2777
I1
sS'ed'
p2778
I8
sS'yeah'
p2779
I4
sS'fires'
p2780
I2
sS'ex'
p2781
I3
sS'begun'
p2782
I1
sS'eu'
p2783
I1
sS'happen'
p2784
I3
sS'adequately'
p2785
I1
sS'es'
p2786
I10
sS'er'
p2787
I7
sS'album'
p2788
I4
sS'ultimately'
p2789
I1
sS'accomplish'
p2790
I1
sS'opened'
p2791
I2
sS'space'
p2792
I8
sS'profit'
p2793
I1
sS'furthermore'
p2794
I2
sS'factory'
p2795
I1
sS'increase'
p2796
I1
sS'navigating'
p2797
I2
sS'fargo'
p2798
I1
sS'receiving'
p2799
I1
sS'shows'
p2800
I5
sS'eagle'
p2801
I1
sS'cars'
p2802
I2
sS'mapping'
p2803
I1
sS'hulu'
p2804
I2
sS'unwanted'
p2805
I2
sS'rebel'
p2806
I1
sS'carl'
p2807
I1
sS'obligation'
p2808
I2
sS'card'
p2809
I112
sS'care'
p2810
I15
sS'panoramic'
p2811
I1
sS'transition'
p2812
I1
sS'fb'
p2813
I2
sS'honest'
p2814
I2
sS'motion'
p2815
I1
sS'turn'
p2816
I24
sS'place'
p2817
I12
sS'amazingly'
p2818
I3
sS'initial'
p2819
I3
sS'predictive'
p2820
I2
sS'flipping'
p2821
I1
sS'yourself'
p2822
I7
sS'directly'
p2823
I5
sS'alike'
p2824
I2
sS'impossible'
p2825
I5
sS'xp'
p2826
I2
sS'fight'
p2827
I1
sS'millions'
p2828
I2
sS'given'
p2829
I9
sS'necessarily'
p2830
I4
sS'checked'
p2831
I2
sS'silent'
p2832
I1
sS'virgin'
p2833
I4
sS'caught'
p2834
I1
sS'europe'
p2835
I2
sS'plastic'
p2836
I21
sS'bahamas'
p2837
I1
sS'returns'
p2838
I1
sS'white'
p2839
I11
sS'friend'
p2840
I5
sS'gives'
p2841
I5
sS'exploring'
p2842
I1
sS'hub'
p2843
I1
sS'released'
p2844
I6
sS'corning'
p2845
I1
sS'quad'
p2846
I1
sS'operates'
p2847
I1
sS'wide'
p2848
I1
sS'rugged'
p2849
I1
sS'unfortunately'
p2850
I5
sS'require'
p2851
I5
sS'transferred'
p2852
I6
sS'computer'
p2853
I26
sS'apples'
p2854
I3
sS'cards'
p2855
I5
sS'browses'
p2856
I1
sS'browser'
p2857
I15
sS'pre'
p2858
I11
sS'troublesome'
p2859
I1
sS'pro'
p2860
I8
sS'ant'
p2861
I3
sS'slam'
p2862
I1
sS'sells'
p2863
I2
sS'recover'
p2864
I1
sS'form'
p2865
I2
sS'tunein'
p2866
I3
sS'terrific'
p2867
I4
sS'emphasis'
p2868
I1
sS'online'
p2869
I20
sS'heal'
p2870
I1
sS'surf'
p2871
I6
sS'begin'
p2872
I1
sS'sure'
p2873
I44
sS'multiple'
p2874
I7
sS'price'
p2875
I288
sS'clearer'
p2876
I1
sS'falls'
p2877
I2
sS'importantly'
p2878
I3
sS'polaris'
p2879
I1
sS'forever'
p2880
I3
sS'flawlessly'
p2881
I4
sS'considered'
p2882
I4
sS'proud'
p2883
I1
sS'hungry'
p2884
I1
sS'numbering'
p2885
I1
sS'tooth'
p2886
I3
sS'cortex'
p2887
I1
sS'professional'
p2888
I2
sS'senior'
p2889
I2
sS'typically'
p2890
I1
sS'applicator'
p2891
I1
sS'quantity'
p2892
I1
sS'spaced'
p2893
I1
sS'cheap'
p2894
I51
sS'fifty'
p2895
I1
sS'discovered'
p2896
I5
sS'superb'
p2897
I5
sS'painlessly'
p2898
I2
sS'fifth'
p2899
I1
sS'ground'
p2900
I2
sS'upgrade'
p2901
I21
sS'ratio'
p2902
I2
sS'state'
p2903
I3
sS'explicitly'
p2904
I1
sS'believing'
p2905
I1
sS'correctly'
p2906
I2
sS'viewpoint'
p2907
I1
sS'lighten'
p2908
I1
sS'emulators'
p2909
I2
sS'truly'
p2910
I12
sS'tailor'
p2911
I1
sS'lighter'
p2912
I3
sS'installed'
p2913
I18
sS'regarding'
p2914
I4
sS'recharged'
p2915
I1
sS'seldom'
p2916
I2
sS'irritant'
p2917
I1
sS'myopic'
p2918
I1
sS'fainter'
p2919
I1
sS'husband'
p2920
I13
sS'burst'
p2921
I1
sS'physically'
p2922
I1
sS'signs'
p2923
I1
sS'connections'
p2924
I1
sS'asleep'
p2925
I1
sS'concern'
p2926
I3
sS'detect'
p2927
I2
sS'mortgage'
p2928
I2
sS'managing'
p2929
I4
sS'subsequent'
p2930
I1
sS'review'
p2931
I33
sS'outside'
p2932
I9
sS'between'
p2933
I15
sS'import'
p2934
I1
sS'notice'
p2935
I2
sS'messed'
p2936
I1
sS'rapidly'
p2937
I1
sS'hardtop'
p2938
I1
sS'postage'
p2939
I1
sS'mobiles'
p2940
I13
sS'installation'
p2941
I1
sS'voicemail'
p2942
I2
sS'megapixels'
p2943
I1
sS'quiet'
p2944
I2
sS'contract'
p2945
I51
sS'prompted'
p2946
I1
sS'comes'
p2947
I42
sS'duty'
p2948
I1
sS'spoil'
p2949
I1
sS'color'
p2950
I15
sS'overview'
p2951
I1
sS'period'
p2952
I7
sS'pop'
p2953
I6
sS'pol'
p2954
I1
sS'learning'
p2955
I14
sS'pod'
p2956
I2
sS'cares'
p2957
I3
sS'informed'
p2958
I1
sS'subscriber'
p2959
I1
sS'hardly'
p2960
I2
sS'engine'
p2961
I1
sS'direction'
p2962
I6
sS'robbed'
p2963
I1
sS'external'
p2964
I2
sS'careful'
p2965
I2
sS'countless'
p2966
I3
sS'case'
p2967
I41
sS'myself'
p2968
I16
sS'mount'
p2969
I1
sS'cash'
p2970
I3
sS'trick'
p2971
I2
sS'slippery'
p2972
I4
sS'shops'
p2973
I2
sS'taking'
p2974
I15
sS'orientation'
p2975
I1
sS'coupled'
p2976
I1
sS'canceled'
p2977
I1
sS'good'
p2978
I278
sS'return'
p2979
I9
sS'mediocre'
p2980
I2
sS'worry'
p2981
I5
sS'develop'
p2982
I2
sS'assure'
p2983
I1
sS'media'
p2984
I21
sS'granted'
p2985
I4
sS'check'
p2986
I17
sS'figuring'
p2987
I1
sS'coworkers'
p2988
I1
sS'buys'
p2989
I3
sS'lite'
p2990
I3
sS'reminder'
p2991
I1
sS'document'
p2992
I2
sS'events'
p2993
I2
sS'week'
p2994
I16
sS'downloads'
p2995
I3
sS'driver'
p2996
I4
sS'drives'
p2997
I1
sS'producers'
p2998
I1
sS'persons'
p2999
I2
sS'delicate'
p3000
I1
sS'favorites'
p3001
I2
sS'changing'
p3002
I2
sS'complained'
p3003
I1
sS'modes'
p3004
I3
sS'charges'
p3005
I6
sS'charger'
p3006
I18
sS'breeze'
p3007
I10
sS'flakes'
p3008
I1
sS'relief'
p3009
I2
sS'termination'
p3010
I1
sS'model'
p3011
I13
sS'justify'
p3012
I4
sS'captures'
p3013
I1
sS'guided'
p3014
I3
sS'ci'
p3015
I2
sS'actions'
p3016
I1
sS'clot'
p3017
I1
sS'relevant'
p3018
I2
sS'kill'
p3019
I2
sS'ounces'
p3020
I1
sS'touch'
p3021
I47
sS'speed'
p3022
I17
sS'blow'
p3023
I1
sS'announcement'
p3024
I1
sS'death'
p3025
I2
sS'thinking'
p3026
I6
sS'seems'
p3027
I37
sS'iphones'
p3028
I13
sS'desktop'
p3029
I12
sS'blog'
p3030
I1
sS'lets'
p3031
I10
sS'interested'
p3032
I3
sS'treatment'
p3033
I1
sS'flashing'
p3034
I1
sS'real'
p3035
I23
sS'read'
p3036
I31
sS'calendars'
p3037
I3
sS'gonna'
p3038
I3
sS'early'
p3039
I2
sS'np'
p3040
I1
sS'nappy'
p3041
I1
sS'detract'
p3042
I1
sS'using'
p3043
I98
sS'accepted'
p3044
I1
sS'lady'
p3045
I1
sS'rear'
p3046
I8
sS'fortune'
p3047
I1
sS'oddly'
p3048
I1
sS'annually'
p3049
I1
sS'benefit'
p3050
I4
sS'blackberry'
p3051
I9
sS'output'
p3052
I1
sS'tower'
p3053
I1
sS'reduced'
p3054
I1
sS'subsidize'
p3055
I1
sS'competition'
p3056
I2
sS'hacks'
p3057
I2
sS'table'
p3058
I1
sS'provided'
p3059
I4
sS'unlocked'
p3060
I10
sS'recorded'
p3061
I1
sS'slick'
p3062
I6
sS'jiggle'
p3063
I1
sS'provides'
p3064
I6
sS'provider'
p3065
I4
sS'business'
p3066
I6
sS'indestructible'
p3067
I1
sS'nails'
p3068
I1
sS'communicate'
p3069
I2
sS'miscellaneous'
p3070
I1
sS'exciting'
p3071
I2
sS'throw'
p3072
I3
sS'comparison'
p3073
I9
sS'ok'
p3074
I17
sS'oh'
p3075
I5
sS'ports'
p3076
I1
sS'stand'
p3077
I8
sS'ox'
p3078
I1
sS'os'
p3079
I72
sS'processor'
p3080
I14
sS'sleekness'
p3081
I1
sS'amber'
p3082
I7
sS'outlook'
p3083
I18
sS'inclusion'
p3084
I1
sS'communication'
p3085
I1
sS'youd'
p3086
I3
sS'garner'
p3087
I1
sS'accounts'
p3088
I13
sS'heated'
p3089
I1
sS'operator'
p3090
I2
sS'lastly'
p3091
I3
sS'nowadays'
p3092
I1
sS'buds'
p3093
I1
sS'log'
p3094
I4
sS'area'
p3095
I12
sS'assumed'
p3096
I1
sS'stark'
p3097
I1
sS'start'
p3098
I23
sS'low'
p3099
I45
sS'lot'
p3100
I86
sS'transitioning'
p3101
I1
sS'energy'
p3102
I2
sS'illuminated'
p3103
I1
sS'drains'
p3104
I1
sS'delayed'
p3105
I2
sS'trying'
p3106
I22
sS'longer'
p3107
I13
sS'applying'
p3108
I1
sS'improved'
p3109
I2
sS'default'
p3110
I3
sS'bucket'
p3111
I1
sS'strongly'
p3112
I1
sS'toilet'
p3113
I1
sS'politico'
p3114
I1
sS'taste'
p3115
I1
sS'moved'
p3116
I3
sS'sales'
p3117
I3
sS'scanned'
p3118
I1
sS'aces'
p3119
I1
sS'nerd'
p3120
I1
sS'stumbled'
p3121
I2
sS'beyond'
p3122
I2
sS'antenna'
p3123
I4
sS'storage'
p3124
I37
sS'unneeded'
p3125
I1
sS'forcing'
p3126
I1
sS'poor'
p3127
I11
sS'requested'
p3128
I1
sS'poop'
p3129
I2
sS'separate'
p3130
I4
sS'includes'
p3131
I5
sS'coverage'
p3132
I8
sS'included'
p3133
I15
sS'prongs'
p3134
I1
sS'pool'
p3135
I1
sS'unresponsive'
p3136
I1
sS'building'
p3137
I2
sS'calls'
p3138
I61
sS'wife'
p3139
I17
sS'invest'
p3140
I1
sS'wifi'
p3141
I143
sS'curve'
p3142
I6
sS'websites'
p3143
I2
sS'overseas'
p3144
I2
sS'wvga'
p3145
I3
sS'pointing'
p3146
I1
sS'swirly'
p3147
I1
sS'lack'
p3148
I25
sS'month'
p3149
I41
sS'follow'
p3150
I1
sS'research'
p3151
I4
sS'decisions'
p3152
I2
sS'synthetic'
p3153
I1
sS'apartment'
p3154
I1
sS'icons'
p3155
I10
sS'pricing'
p3156
I2
sS'program'
p3157
I5
sS'skip'
p3158
I2
sS'presentation'
p3159
I1
sS'traditionally'
p3160
I1
sS'tethered'
p3161
I2
sS'activities'
p3162
I3
sS'worse'
p3163
I4
sS'song'
p3164
I2
sS'very'
p3165
I273
sS'selfies'
p3166
I3
sS'worst'
p3167
I1
sS'minded'
p3168
I1
sS'decide'
p3169
I5
sS'awful'
p3170
I1
sS'sony'
p3171
I7
sS'offline'
p3172
I27
sS'delivery'
p3173
I5
sS'switches'
p3174
I1
sS'heaven'
p3175
I1
sS'ranting'
p3176
I1
sS'louis'
p3177
I1
sS'list'
p3178
I15
sS'grandfather'
p3179
I1
sS'manages'
p3180
I3
sS'tel'
p3181
I2
sS'instagram'
p3182
I7
sS'fence'
p3183
I6
sS'rate'
p3184
I7
sS'design'
p3185
I15
sS'tet'
p3186
I1
sS'casual'
p3187
I3
sS'hesitation'
p3188
I2
sS'darkness'
p3189
I1
sS'consumers'
p3190
I1
sS'pinterest'
p3191
I2
sS'sun'
p3192
I1
sS'sum'
p3193
I2
sS'brief'
p3194
I1
sS'thickness'
p3195
I2
sS'crush'
p3196
I4
sS'version'
p3197
I12
sS'reboots'
p3198
I1
sS'learned'
p3199
I7
sS'edited'
p3200
I1
sS'tags'
p3201
I1
sS'loose'
p3202
I5
sS'simcard'
p3203
I1
sS'supposedly'
p3204
I3
sS'answers'
p3205
I1
sS'directions'
p3206
I5
sS'praises'
p3207
I1
sS'strong'
p3208
I6
sS'geared'
p3209
I1
sS'ahead'
p3210
I7
sS'exceptionally'
p3211
I1
sS'amount'
p3212
I16
sS'arent'
p3213
I13
sS'options'
p3214
I17
sS'family'
p3215
I26
sS'marginal'
p3216
I2
sS'screens'
p3217
I10
sS'texts'
p3218
I17
sS'toys'
p3219
I1
sS'evernote'
p3220
I2
sS'takes'
p3221
I39
sS'donuts'
p3222
I1
sS'contains'
p3223
I3
sS'soundmagic'
p3224
I4
sS'taken'
p3225
I4
sS'unthinkable'
p3226
I1
sS'minor'
p3227
I6
sS'flaw'
p3228
I4
sS'knows'
p3229
I2
sS'stutter'
p3230
I1
sS'owners'
p3231
I1
sS'surprisingly'
p3232
I11
sS'stick'
p3233
I8
sS'broke'
p3234
I5
sS'known'
p3235
I4
sS'producing'
p3236
I1
sS'glad'
p3237
I14
sS'hardware'
p3238
I27
sS'budgets'
p3239
I1
sS'caveat'
p3240
I2
sS'computers'
p3241
I4
sS'embarrassing'
p3242
I1
sS'pushes'
p3243
I1
sS'pushed'
p3244
I1
sS'downloading'
p3245
I6
sS'airplane'
p3246
I1
sS'lacks'
p3247
I5
sS'longest'
p3248
I1
sS'processors'
p3249
I2
sS'rather'
p3250
I8
sS'breaking'
p3251
I1
sS'spreadsheet'
p3252
I1
sS'menus'
p3253
I3
sS'occasionally'
p3254
I4
sS'delaney'
p3255
I2
sS'shouldnt'
p3256
I1
sS'okay'
p3257
I6
sS'tried'
p3258
I15
sS'weaknesses'
p3259
I1
sS'fa'
p3260
I2
sS'tries'
p3261
I5
sS'lighting'
p3262
I5
sS'fm'
p3263
I8
sS'short'
p3264
I11
sS'prefers'
p3265
I1
sS'bugs'
p3266
I2
sS'anytime'
p3267
I2
sS'generic'
p3268
I4
sS'uninstall'
p3269
I2
sS'help'
p3270
I14
sS'september'
p3271
I1
sS'developed'
p3272
I3
sS'advised'
p3273
I1
sS'soon'
p3274
I13
sS'held'
p3275
I2
sS'isnt'
p3276
I40
sS'helm'
p3277
I1
sS'hell'
p3278
I1
sS'developer'
p3279
I2
sS'style'
p3280
I6
sS'glide'
p3281
I1
sS'pray'
p3282
I1
sS'actually'
p3283
I35
sS'systems'
p3284
I6
sS'teens'
p3285
I1
sS'bout'
p3286
I1
sS'might'
p3287
I20
sS'fool'
p3288
I2
sS'evening'
p3289
I1
sS'somebody'
p3290
I2
sS'sucking'
p3291
I1
sS'ya'
p3292
I1
sS'number'
p3293
I26
sS'starbucks'
p3294
I1
sS'yr'
p3295
I2
sS'bigger'
p3296
I9
sS'instructions'
p3297
I2
sS'fully'
p3298
I2
sS'capability'
p3299
I9
sS'stopped'
p3300
I1
sS'heavy'
p3301
I11
sS'weighs'
p3302
I1
sS'weight'
p3303
I14
sS'needless'
p3304
I2
sS'generation'
p3305
I3
sS'expect'
p3306
I15
sS'scratching'
p3307
I1
sS'inflated'
p3308
I2
sS'event'
p3309
I3
sS'magnet'
p3310
I2
sS'marketplaces'
p3311
I1
sS'trusty'
p3312
I1
sS'solved'
p3313
I3
sS'since'
p3314
I63
sS'dying'
p3315
I1
sS'issue'
p3316
I19
sS'dunk'
p3317
I1
sS'protruding'
p3318
I1
sS'dirt'
p3319
I3
sS'ios'
p3320
I40
sS'friday'
p3321
I1
sS'guess'
p3322
I11
sS'reason'
p3323
I17
sS'base'
p3324
I2
sS'put'
p3325
I40
sS'teach'
p3326
I2
sS'launch'
p3327
I3
sS'persuading'
p3328
I1
sS'terrible'
p3329
I1
sS'terribly'
p3330
I2
sS'american'
p3331
I1
sS'expecting'
p3332
I12
sS'cdma'
p3333
I1
sS'fallen'
p3334
I2
sS'ding'
p3335
I1
sS'smoother'
p3336
I1
sS'fourthly'
p3337
I1
sS'feel'
p3338
I41
sS'fancy'
p3339
I9
sS'linking'
p3340
I1
sS'feet'
p3341
I1
sS'buffing'
p3342
I1
sS'talked'
p3343
I1
sS'effortless'
p3344
I1
sS'says'
p3345
I7
sS'miss'
p3346
I15
sS'story'
p3347
I2
sS'temperature'
p3348
I1
sS'grime'
p3349
I1
sS'wonderful'
p3350
I12
sS'expand'
p3351
I2
sS'passed'
p3352
I1
sS'scheme'
p3353
I1
sS'photographing'
p3354
I1
sS'ecuador'
p3355
I1
sS'headache'
p3356
I1
sS'shifted'
p3357
I1
sS'overexposed'
p3358
I1
sS'selling'
p3359
I11
sS'option'
p3360
I24
sS'obsolete'
p3361
I3
sS'luckily'
p3362
I1
sS'translation'
p3363
I1
sS'financing'
p3364
I1
sS'hundred'
p3365
I9
sS'double'
p3366
I3
sS'ducks'
p3367
I1
sS'store'
p3368
I77
sS'outdoors'
p3369
I1
sS'kindle'
p3370
I6
sS'gps'
p3371
I51
sS'cleaner'
p3372
I1
sS'motivation'
p3373
I1
sS'enamored'
p3374
I1
sS'outstanding'
p3375
I6
sS'syncing'
p3376
I5
sS'alongside'
p3377
I1
sS'randomly'
p3378
I3
sS'gala'
p3379
I1
sS'organs'
p3380
I1
sS'lit'
p3381
I7
sS'lip'
p3382
I1
sS'useless'
p3383
I2
sS'finding'
p3384
I7
sS'liz'
p3385
I1
sS'towards'
p3386
I2
sS'populate'
p3387
I1
sS'customize'
p3388
I6
sS'inconvenience'
p3389
I1
sS'reach'
p3390
I1
sS'react'
p3391
I1
sS'experiences'
p3392
I1
sS'position'
p3393
I2
sS'nothing'
p3394
I28
sS'appear'
p3395
I3
sS'sturdy'
p3396
I11
sS'mobile'
p3397
I202
sS'clear'
p3398
I31
sS'popularity'
p3399
I1
sS'part'
p3400
I9
sS'clean'
p3401
I5
sS'notch'
p3402
I3
sS'fono'
p3403
I1
sS'stunned'
p3404
I1
sS'fone'
p3405
I1
sS'font'
p3406
I2
sS'albums'
p3407
I3
sS'costing'
p3408
I3
sS'reminiscent'
p3409
I1
sS'rebooting'
p3410
I1
sS'starters'
p3411
I1
sS'pretty'
p3412
I72
sS'circle'
p3413
I1
sS'hotmail'
p3414
I4
sS'hit'
p3415
I7
sS'landscapes'
p3416
I2
sS'kind'
p3417
I14
sS'famous'
p3418
I2
sS'feels'
p3419
I39
sS'grew'
p3420
I1
sS'hie'
p3421
I1
sS'reply'
p3422
I2
sS'during'
p3423
I4
sS'workouts'
p3424
I1
sS'emails'
p3425
I14
sS'tmobile'
p3426
I20
sS'generally'
p3427
I6
sS'sacrifices'
p3428
I2
sS'gloves'
p3429
I7
sS'hype'
p3430
I1
sS'precaution'
p3431
I1
sS'wrote'
p3432
I1
sS'scanning'
p3433
I2
sS'bars'
p3434
I1
sS'dump'
p3435
I1
sS'dumb'
p3436
I1
sS'portrait'
p3437
I2
sS'arm'
p3438
I1
sS'declined'
p3439
I1
sS'barn'
p3440
I1
sS'practice'
p3441
I2
sS'learnt'
p3442
I1
sS'pictures'
p3443
I45
sS'wow'
p3444
I9
sS'familiarity'
p3445
I1
sS'formatted'
p3446
I1
sS'blurs'
p3447
I1
sS'won'
p3448
I2
sS'various'
p3449
I6
sS'contrary'
p3450
I1
sS'conditions'
p3451
I2
sS'risks'
p3452
I1
sS'recently'
p3453
I9
sS'creating'
p3454
I1
sS'notoriously'
p3455
I1
sS'missing'
p3456
I14
sS'silicone'
p3457
I2
sS'sold'
p3458
I9
sS'attention'
p3459
I2
sS'outfit'
p3460
I1
sS'disturbance'
p3461
I1
sS'both'
p3462
I40
sS'toward'
p3463
I1
sS'license'
p3464
I5
sS'memorized'
p3465
I1
sS'sensitive'
p3466
I10
sS'became'
p3467
I1
sS'megs'
p3468
I1
sS'vault'
p3469
I1
sS'protector'
p3470
I15
sS'reside'
p3471
I1
sS'liked'
p3472
I8
sS'viber'
p3473
I2
sS'deciding'
p3474
I1
sS'reasons'
p3475
I2
sS'logged'
p3476
I2
sS'whatever'
p3477
I4
sS'megapixel'
p3478
I1
sS'spotting'
p3479
I1
sS'likes'
p3480
I6
sS'slots'
p3481
I2
sS'described'
p3482
I4
sS'pt'
p3483
I4
sS'pu'
p3484
I2
sS'wozniak'
p3485
I1
sS'due'
p3486
I19
sS'pb'
p3487
I2
sS'wasnt'
p3488
I21
sS'toolbar'
p3489
I1
sS'pd'
p3490
I1
sS'brick'
p3491
I1
sS'pi'
p3492
I1
sS'pm'
p3493
I2
sS'compromises'
p3494
I2
sS'flight'
p3495
I2
sS'sending'
p3496
I2
sS'ages'
p3497
I1
sS'transferring'
p3498
I2
sS'else'
p3499
I20
sS'demand'
p3500
I1
sS'dialing'
p3501
I1
sS'pact'
p3502
I1
sS'georgia'
p3503
I1
sS'frozen'
p3504
I2
sS'while'
p3505
I48
sS'homework'
p3506
I1
sS'behavior'
p3507
I2
sS'animated'
p3508
I1
sS'biking'
p3509
I1
sS'guide'
p3510
I1
sS'pack'
p3511
I1
sS'rip'
p3512
I3
sS'disappointing'
p3513
I2
sS'reads'
p3514
I4
sS'skype'
p3515
I11
sS'ready'
p3516
I12
sS'rid'
p3517
I2
sS'currents'
p3518
I1
sS'shirt'
p3519
I1
sS'anymore'
p3520
I4
sS'government'
p3521
I1
sS'grand'
p3522
I2
sS'higher'
p3523
I19
sS'arrives'
p3524
I1
sS'temporary'
p3525
I2
sS'bonus'
p3526
I1
sS'painless'
p3527
I1
sS'flows'
p3528
I3
sS'uses'
p3529
I18
sS'user'
p3530
I58
sS'robust'
p3531
I1
sS'barfing'
p3532
I1
sS'lower'
p3533
I7
sS'database'
p3534
I2
sS'anybody'
p3535
I2
sS'obviously'
p3536
I6
sS'solids'
p3537
I1
sS'edge'
p3538
I1
sS'savvy'
p3539
I8
sS'gsm'
p3540
I5
sS'powering'
p3541
I1
sS'ergonomic'
p3542
I2
sS'breathtaking'
p3543
I1
sS'competitive'
p3544
I1
sS'inactive'
p3545
I1
sS'questions'
p3546
I6
sS'retired'
p3547
I1
sS'gems'
p3548
I1
sS'loading'
p3549
I3
sS'tablet'
p3550
I21
sS'exercising'
p3551
I1
sS'exclusively'
p3552
I1
sS'internal'
p3553
I17
sS'remaining'
p3554
I2
sS'finder'
p3555
I1
sS'customers'
p3556
I6
sS'march'
p3557
I2
sS'complains'
p3558
I2
sS'lacking'
p3559
I3
sS'evaluate'
p3560
I1
sS'showing'
p3561
I1
sS'unlimited'
p3562
I21
sS'game'
p3563
I12
sS'motorola'
p3564
I2
sS'dearly'
p3565
I1
sS'damage'
p3566
I2
sS'ahem'
p3567
I2
sS'skeptical'
p3568
I3
sS'outright'
p3569
I3
sS'rotate'
p3570
I1
sS'signal'
p3571
I16
sS'translates'
p3572
I1
sS'ignore'
p3573
I1
sS'collect'
p3574
I1
sS'popular'
p3575
I8
sS'essential'
p3576
I4
sS'fathers'
p3577
I1
sS'arrived'
p3578
I9
sS'streaming'
p3579
I8
sS'added'
p3580
I11
sS'trendy'
p3581
I1
sS'delivered'
p3582
I4
sS'retry'
p3583
I2
sS'pros'
p3584
I30
sS'exceeding'
p3585
I1
sS'prop'
p3586
I2
sS'competitions'
p3587
I1
sS'tends'
p3588
I1
sS'minimal'
p3589
I2
sS'run'
p3590
I21
sS'booklet'
p3591
I1
sS'processing'
p3592
I7
sS'refused'
p3593
I1
sS'zombie'
p3594
I1
sS'step'
p3595
I11
sS'negatives'
p3596
I3
sS'lasts'
p3597
I9
sS'abroad'
p3598
I1
sS'vivid'
p3599
I1
sS'faith'
p3600
I1
sS'wouldnt'
p3601
I10
sS'standalone'
p3602
I2
sS'ids'
p3603
I1
sS'range'
p3604
I21
sS'allotment'
p3605
I1
sS'messaging'
p3606
I8
sS'complimentary'
p3607
I1
sS'wanna'
p3608
I3
sS'angry'
p3609
I1
sS'block'
p3610
I1
sS'seeing'
p3611
I3
sS'pero'
p3612
I2
sS'within'
p3613
I10
sS'holster'
p3614
I1
sS'impressed'
p3615
I21
sS'smoothly'
p3616
I7
sS'question'
p3617
I4
sS'handles'
p3618
I1
sS'fast'
p3619
I87
sS'twitter'
p3620
I11
sS'manufacture'
p3621
I1
sS'plunge'
p3622
I2
sS'peru'
p3623
I1
sS'registered'
p3624
I1
sS'inept'
p3625
I1
sS'girlfriends'
p3626
I1
sS'cloth'
p3627
I1
sS'properly'
p3628
I3
sS'newer'
p3629
I8
sS'info'
p3630
I6
sS'consist'
p3631
I2
sS'restarted'
p3632
I3
sS'windows'
p3633
I363
sS'cartwheel'
p3634
I1
sS'similar'
p3635
I10
sS'called'
p3636
I11
sS'ordered'
p3637
I16
sS'worthwhile'
p3638
I1
sS'accessibility'
p3639
I1
sS'doesn'
p3640
I6
sS'nab'
p3641
I1
sS'passable'
p3642
I1
sS'rainx'
p3643
I2
sS'nan'
p3644
I1
sS'grouped'
p3645
I1
sS'recognition'
p3646
I5
sS'income'
p3647
I2
sS'nay'
p3648
I1
sS'nice'
p3649
I89
sS'draw'
p3650
I2
sS'users'
p3651
I16
sS'pureness'
p3652
I2
sS'problems'
p3653
I30
sS'regulations'
p3654
I1
sS'meaning'
p3655
I1
sS'allowing'
p3656
I2
sS'samsungs'
p3657
I1
sS'earphones'
p3658
I1
sS'suffers'
p3659
I1
sS'happier'
p3660
I3
sS'practically'
p3661
I5
sS'required'
p3662
I4
sS'youtube'
p3663
I9
sS'depth'
p3664
I1
sS'requires'
p3665
I5
sS'scroll'
p3666
I2
sS'once'
p3667
I39
sS'gs'
p3668
I2
sS'slobbered'
p3669
I1
sS'hooks'
p3670
I1
sS'steve'
p3671
I1
sS'gb'
p3672
I59
sS'ga'
p3673
I1
sS'adjustment'
p3674
I1
sS'issues'
p3675
I17
sS'compact'
p3676
I1
sS'itll'
p3677
I2
sS'speakerphone'
p3678
I6
sS'suits'
p3679
I2
sS'languages'
p3680
I1
sS'shack'
p3681
I1
sS'stable'
p3682
I3
sS'suite'
p3683
I2
sS'include'
p3684
I11
sS'friendly'
p3685
I23
sS'wished'
p3686
I1
sS'ague'
p3687
I1
sS'kitty'
p3688
I1
sS'facebook'
p3689
I28
sS'cellular'
p3690
I10
sS'telling'
p3691
I1
sS'notes'
p3692
I3
sS'deleting'
p3693
I1
sS'noted'
p3694
I5
sS'disclaimer'
p3695
I1
sS'limitations'
p3696
I6
sS'smaller'
p3697
I13
sS'compensated'
p3698
I1
sS'boots'
p3699
I1
sS'jump'
p3700
I2
sS'traveling'
p3701
I1
sS'picked'
p3702
I10
sS'download'
p3703
I35
sS'click'
p3704
I10
sS'plays'
p3705
I5
sS'unavailable'
p3706
I1
sS'saw'
p3707
I7
sS'labeled'
p3708
I2
sS'networks'
p3709
I2
sS'cell'
p3710
I30
sS'waiting'
p3711
I8
sS'experiment'
p3712
I2
sS'capital'
p3713
I1
sS'chose'
p3714
I4
sS'degree'
p3715
I2
sS'desired'
p3716
I1
sS'explore'
p3717
I5
sS'sexy'
p3718
I1
sS'convert'
p3719
I2
sS'metro'
p3720
I4
sS'larger'
p3721
I6
sS'leaving'
p3722
I2
sS'products'
p3723
I9
sS'requite'
p3724
I1
sS'ruin'
p3725
I1
sS'stabilization'
p3726
I1
sS'addresses'
p3727
I4
sS'win'
p3728
I11
sS'app'
p3729
I139
sS'manage'
p3730
I2
sS'apprehensive'
p3731
I1
sS'addressed'
p3732
I1
sS'wit'
p3733
I1
sS'apn'
p3734
I2
sS'apply'
p3735
I2
sS'cloud'
p3736
I6
sS'announced'
p3737
I3
sS'fee'
p3738
I4
sS'crap'
p3739
I5
sS'stream'
p3740
I2
sS'usa'
p3741
I4
sS'remains'
p3742
I1
sS'nexus'
p3743
I37
sS'camera'
p3744
I222
sS'stage'
p3745
I2
sS'sort'
p3746
I4
sS'popped'
p3747
I3
sS'started'
p3748
I6
sS'becomes'
p3749
I2
sS'inclined'
p3750
I1
sS'factor'
p3751
I3
sS'impress'
p3752
I1
sS'visibility'
p3753
I2
sS'antennas'
p3754
I1
sS'actual'
p3755
I7
sS'starter'
p3756
I1
sS'retries'
p3757
I1
sS'ride'
p3758
I1
sS'anywhere'
p3759
I6
sS'meet'
p3760
I4
sS'drops'
p3761
I4
sS'proof'
p3762
I1
sS'control'
p3763
I7
sS'proprietary'
p3764
I1
sS'links'
p3765
I1
sS'providers'
p3766
I1
sS'tax'
p3767
I4
sS'legible'
p3768
I1
sS'pulling'
p3769
I3
sS'something'
p3770
I34
sS'tab'
p3771
I3
sS'tan'
p3772
I1
sS'hesitate'
p3773
I1
sS'united'
p3774
I1
sS'defective'
p3775
I1
sS'arrangement'
p3776
I1
sS'located'
p3777
I1
sS'undersized'
p3778
I1
sS'sim'
p3779
I83
sS'fare'
p3780
I1
sS'farm'
p3781
I1
sS'jiffy'
p3782
I1
sS'abuse'
p3783
I1
sS'tmobiles'
p3784
I3
sS'whistle'
p3785
I1
sS'light'
p3786
I49
sS'honestly'
p3787
I12
sS'software'
p3788
I26
sS'fastest'
p3789
I1
sS'whilst'
p3790
I2
sS'including'
p3791
I11
sS'joanna'
p3792
I1
sS'cruise'
p3793
I1
sS'mentioned'
p3794
I8
sS'converting'
p3795
I1
sS'freezes'
p3796
I3
sS'superior'
p3797
I6
sS'ships'
p3798
I2
sS'nostalgia'
p3799
I1
sS'permanent'
p3800
I1
sS'choose'
p3801
I15
sS'covered'
p3802
I1
sS'pixel'
p3803
I2
sS'crash'
p3804
I3
sS'auto'
p3805
I8
sS'nokia'
p3806
I272
sS'commended'
p3807
I1
sS'flew'
p3808
I2
sS'functional'
p3809
I4
sS'andriod'
p3810
I3
sS'hands'
p3811
I11
sS'front'
p3812
I53
sS'documented'
p3813
I1
sS'handy'
p3814
I7
sS'articles'
p3815
I1
sS'nfc'
p3816
I4
sS'measly'
p3817
I1
sS'edit'
p3818
I4
sS'tran'
p3819
I1
sS'slide'
p3820
I1
sS'weather'
p3821
I5
sS'fiddle'
p3822
I2
sS'mode'
p3823
I8
sS'crossing'
p3824
I1
sS'seniors'
p3825
I1
sS'attachments'
p3826
I1
sS'globe'
p3827
I1
sS'staying'
p3828
I2
sS'related'
p3829
I1
sS'bluetooth'
p3830
I15
sS'variety'
p3831
I7
sS'measure'
p3832
I1
sS'transitions'
p3833
I1
sS'special'
p3834
I3
sS'category'
p3835
I2
sS'respects'
p3836
I1
sS'integrates'
p3837
I2
sS'reboot'
p3838
I5
sS'performs'
p3839
I6
sS'utility'
p3840
I2
sS'obsessive'
p3841
I1
sS'clone'
p3842
I2
sS'eco'
p3843
I1
sS'ipod'
p3844
I23
sS'galaxies'
p3845
I1
sS'promptly'
p3846
I1
sS'completely'
p3847
I8
sS'ect'
p3848
I2
sS'anyhow'
p3849
I2
sS'route'
p3850
I4
sS'ask'
p3851
I6
sS'keep'
p3852
I26
sS'keen'
p3853
I2
sS'lte'
p3854
I15
sS'ltd'
p3855
I1
sS'restaurants'
p3856
I1
sS'prospective'
p3857
I1
sS'powerful'
p3858
I3
sS'improving'
p3859
I2
sS'mah'
p3860
I3
sS'precisely'
p3861
I1
sS'quality'
p3862
I120
sS'playlist'
p3863
I3
sS'management'
p3864
I2
sS'tmoble'
p3865
I2
sS'durable'
p3866
I10
sS'priority'
p3867
I1
sS'durably'
p3868
I1
sS'wrapped'
p3869
I1
sS'perfectly'
p3870
I14
sS'final'
p3871
I2
sS'shell'
p3872
I2
sS'configure'
p3873
I1
sS'exactly'
p3874
I5
sS'lists'
p3875
I2
sS'slides'
p3876
I1
sS'slider'
p3877
I2
sS'resurrects'
p3878
I1
sS'fuzzy'
p3879
I1
sS'july'
p3880
I1
sS'overwhelming'
p3881
I2
sS'herself'
p3882
I1
sS'updating'
p3883
I2
sS'photograph'
p3884
I1
sS'bed'
p3885
I3
sS'limiting'
p3886
I2
sS'frugal'
p3887
I2
sS'moto'
p3888
I3
sS'spurt'
p3889
I1
sS'bet'
p3890
I1
sS'exhibit'
p3891
I11
sS'teenagers'
p3892
I2
sS'close'
p3893
I16
sS'need'
p3894
I132
sS'linked'
p3895
I4
sS'unbearable'
p3896
I1
sS'microphone'
p3897
I3
sS'afraid'
p3898
I1
sS'unadulterated'
p3899
I1
sS'bough'
p3900
I1
sS'able'
p3901
I48
sS'si'
p3902
I1
sS'purchasing'
p3903
I3
sS'relatives'
p3904
I3
sS'mango'
p3905
I1
sS'sn'
p3906
I1
sS'camper'
p3907
I2
sS'intentions'
p3908
I1
sS'flipboard'
p3909
I2
sS'connected'
p3910
I10
sS'cracking'
p3911
I1
sS'awe'
p3912
I1
sS'alarmed'
p3913
I1
sS'why'
p3914
I30
sS'cellphone'
p3915
I9
sS'refreshing'
p3916
I2
sS'looked'
p3917
I4
sS'lowered'
p3918
I1
sS'nailed'
p3919
I2
sS'impression'
p3920
I2
sS'chances'
p3921
I1
sS'indoor'
p3922
I2
sS'anyway'
p3923
I12
sS'unbelievable'
p3924
I3
sS'purely'
p3925
I1
sS'planning'
p3926
I6
sS'weekly'
p3927
I2
sS'pleased'
p3928
I18
sS'highest'
p3929
I5
sS'based'
p3930
I4
sS'winner'
p3931
I3
sS'pouches'
p3932
I2
sS'operational'
p3933
I1
sS'brighter'
p3934
I1
sS'bogged'
p3935
I2
sS'employed'
p3936
I1
sS'piano'
p3937
I1
sS'thousands'
p3938
I5
sS'watching'
p3939
I4
sS'midnight'
p3940
I1
sS'overall'
p3941
I39
sS'ones'
p3942
I19
sS'words'
p3943
I3
sS'probably'
p3944
I25
sS'buyer'
p3945
I1
sS'compute'
p3946
I1
sS'scrolling'
p3947
I3
sS'endless'
p3948
I2
sS'gray'
p3949
I1
sS'processes'
p3950
I1
sS'wish'
p3951
I20
sS'grab'
p3952
I3
sS'generations'
p3953
I3
sS'view'
p3954
I11
sS'knowing'
p3955
I4
sS'requirement'
p3956
I1
sS'smooth'
p3957
I26
sS'schwa'
p3958
I1
sS'orphan'
p3959
I1
sS'distantly'
p3960
I1
sS'legacy'
p3961
I1
sS'usefulness'
p3962
I1
sS'gmail'
p3963
I5
sS'horribly'
p3964
I1
sS'tend'
p3965
I5
sS'initially'
p3966
I2
sS'written'
p3967
I2
sS'closed'
p3968
I1
sS'horrible'
p3969
I4
sS'limit'
p3970
I2
sS'bought'
p3971
I115
sS'comparable'
p3972
I5
sS'ability'
p3973
I19
sS'joy'
p3974
I2
sS'interfere'
p3975
I1
sS'efficiency'
p3976
I1
sS'magi'
p3977
I1
sS'joe'
p3978
I1
sS'key'
p3979
I5
sS'precious'
p3980
I2
sS'monitor'
p3981
I3
sS'limits'
p3982
I5
sS'display'
p3983
I19
sS'april'
p3984
I2
sS'admit'
p3985
I3
sS'estimation'
p3986
I1
sS'wall'
p3987
I4
sS'walk'
p3988
I1
sS'maximize'
p3989
I1
sS'respect'
p3990
I1
sS'quit'
p3991
I2
sS'yay'
p3992
I3
sS'addition'
p3993
I4
sS'decent'
p3994
I33
sS'charts'
p3995
I1
sS'shame'
p3996
I1
sS'slowly'
p3997
I2
sS'whisper'
p3998
I1
sS'corresponding'
p3999
I1
sS'verizon'
p4000
I14
sS'league'
p4001
I1
sS'sufficient'
p4002
I1
sS'kicks'
p4003
I1
sS'consecutive'
p4004
I1
sS'garmin'
p4005
I2
sS'present'
p4006
I3
sS'smartphones'
p4007
I25
sS'adores'
p4008
I1
sS'unlike'
p4009
I7
sS'harder'
p4010
I6
sS'choices'
p4011
I1
sS'texas'
p4012
I1
sS'owns'
p4013
I2
sS'wild'
p4014
I1
sS'cutter'
p4015
I2
sS'layer'
p4016
I1
sS'mytouch'
p4017
I2
sS'thus'
p4018
I2
sS'thur'
p4019
I1
sS'surface'
p4020
I4
sS'draining'
p4021
I2
sS'dual'
p4022
I8
sS'lightweight'
p4023
I8
sS'bucks'
p4024
I10
sS'capture'
p4025
I1
sS'perhaps'
p4026
I4
sS'began'
p4027
I4
sS'cross'
p4028
I1
sS'strange'
p4029
I3
sS'speaker'
p4030
I28
sS'largest'
p4031
I2
sS'inch'
p4032
I9
sS'party'
p4033
I9
sS'gets'
p4034
I21
sS'difficult'
p4035
I13
sS'student'
p4036
I2
sS'frequently'
p4037
I5
sS'nonetheless'
p4038
I3
sS'breaker'
p4039
I8
sS'rocker'
p4040
I2
sS'upgraded'
p4041
I6
sS'rocket'
p4042
I1
sS'heavily'
p4043
I7
sS'accurate'
p4044
I4
sS'flies'
p4045
I1
sS'dose'
p4046
I1
sS'sources'
p4047
I1
sS'batteries'
p4048
I8
sS'distant'
p4049
I1
sS'advertised'
p4050
I2
sS'rapid'
p4051
I1
sS'console'
p4052
I1
sS'supply'
p4053
I1
sS'sky'
p4054
I3
sS'capabilities'
p4055
I3
sS'battery'
p4056
I183
sS'attractive'
p4057
I2
sS'usage'
p4058
I17
sS'smart'
p4059
I121
sS'kick'
p4060
I1
sS'identical'
p4061
I3
sS'ample'
p4062
I1
sS'livia'
p4063
I1
sS'crushed'
p4064
I1
sS'know'
p4065
I56
sS'press'
p4066
I8
sS'immediately'
p4067
I7
sS'cheapskate'
p4068
I1
sS'loss'
p4069
I2
sS'necessary'
p4070
I8
sS'helpful'
p4071
I2
sS'lost'
p4072
I3
sS'sizes'
p4073
I2
sS'ring'
p4074
I7
sS'candy'
p4075
I4
sS'sized'
p4076
I1
sS'lose'
p4077
I3
sS'setups'
p4078
I1
sS'page'
p4079
I10
sS'wonders'
p4080
I1
sS'glare'
p4081
I1
sS'sequence'
p4082
I1
sS'scared'
p4083
I1
sS'searching'
p4084
I7
sS'library'
p4085
I2
sS'tumblr'
p4086
I2
sS'platforms'
p4087
I2
sS'shes'
p4088
I2
sS'home'
p4089
I32
sS'liking'
p4090
I2
sS'hesitant'
p4091
I1
sS'throughout'
p4092
I3
sS'lean'
p4093
I1
sS'mines'
p4094
I1
sS'leader'
p4095
I1
sS'locate'
p4096
I2
sS'expansion'
p4097
I3
sS'offset'
p4098
I1
sS'rare'
p4099
I1
sS'extension'
p4100
I1
sS'getting'
p4101
I58
sS'recognized'
p4102
I1
sS'compatible'
p4103
I5
sS'perks'
p4104
I2
sS'carrier'
p4105
I14
sS'customizing'
p4106
I1
sS'stakes'
p4107
I1
sS'warranty'
p4108
I5
sS'own'
p4109
I18
sS'additionally'
p4110
I2
sS'previously'
p4111
I9
sS'skydrive'
p4112
I10
sS'headphone'
p4113
I2
sS'weighted'
p4114
I1
sS'artists'
p4115
I2
sS'couldnt'
p4116
I14
sS'pointless'
p4117
I1
sS'eh'
p4118
I2
sS'networking'
p4119
I1
sS'additional'
p4120
I3
sS'pc'
p4121
I18
sS'transfer'
p4122
I8
sS'apps'
p4123
I298
sS'protectors'
p4124
I3
sS'intention'
p4125
I1
sS'ghost'
p4126
I1
sS'triggered'
p4127
I1
sS'hr'
p4128
I2
sS'volume'
p4129
I17
sS'ho'
p4130
I2
sS'ha'
p4131
I1
sS'hf'
p4132
I1
sS'eat'
p4133
I1
sS'hd'
p4134
I9
sS'made'
p4135
I34
sS'whether'
p4136
I7
sS'distract'
p4137
I1
sS'record'
p4138
I1
sS'below'
p4139
I8
sS'converted'
p4140
I2
sS'stories'
p4141
I1
sS'cake'
p4142
I1
sS'piece'
p4143
I1
sS'reconnecting'
p4144
I1
sS'marketplace'
p4145
I2
sS'penny'
p4146
I1
sS'beats'
p4147
I9
sS'functions'
p4148
I19
sS'performed'
p4149
I1
sS'incredible'
p4150
I7
sS'packs'
p4151
I1
sS'boot'
p4152
I1
sS'book'
p4153
I3
sS'sick'
p4154
I2
sS'outlet'
p4155
I1
sS'incredibly'
p4156
I2
sS'conclusion'
p4157
I7
sS'junk'
p4158
I1
sS'kinds'
p4159
I3
sS'searched'
p4160
I1
sS'stay'
p4161
I4
sS'kinda'
p4162
I3
sS'nintendo'
p4163
I1
sS'supple'
p4164
I1
sS'priced'
p4165
I9
sS'friends'
p4166
I13
sS'cliff'
p4167
I1
sS'samsung'
p4168
I43
sS'jewel'
p4169
I1
sS'portion'
p4170
I1
sS'extras'
p4171
I2
sS'volumes'
p4172
I1
sS'pods'
p4173
I1
stp4174
Rp4175
sS'negative_count'
p4176
g8
((dp4177
S'limited'
p4178
I7
sS'augustine'
p4179
I2
sS'similarity'
p4180
I2
sS'saver'
p4181
I2
sS'saves'
p4182
I1
sS'yellow'
p4183
I4
sS'sleek'
p4184
I1
sS'four'
p4185
I5
sS'hanging'
p4186
I3
sS'appetite'
p4187
I1
sS'jam'
p4188
I1
sS'saved'
p4189
I3
sS'poorly'
p4190
I1
sS'stinks'
p4191
I1
sS'whose'
p4192
I1
sS'swag'
p4193
I1
sS'patches'
p4194
I1
sS'eligible'
p4195
I1
sS'seriously'
p4196
I5
sS'swap'
p4197
I1
sS'whatsoever'
p4198
I2
sS'under'
p4199
I23
sS'buyer'
p4200
I12
sS'lord'
p4201
I1
sS'sorry'
p4202
I9
sS'worth'
p4203
I22
sS'placed'
p4204
I5
sS'merchant'
p4205
I2
sS'digit'
p4206
I1
sS'risk'
p4207
I1
sS'activation'
p4208
I3
sS'connects'
p4209
I1
sS'sellers'
p4210
I6
sS'stolen'
p4211
I9
sS'every'
p4212
I33
sS'jack'
p4213
I4
sS'ava'
p4214
I1
sS'affect'
p4215
I1
sS'blanked'
p4216
I2
sS'month'
p4217
I38
sS'lumia'
p4218
I13
sS'encounter'
p4219
I1
sS'school'
p4220
I2
sS'ref'
p4221
I2
sS'companies'
p4222
I2
sS'solution'
p4223
I2
sS'enhance'
p4224
I1
sS'shows'
p4225
I10
sS'heading'
p4226
I1
sS'enjoy'
p4227
I1
sS'dwindled'
p4228
I1
sS'force'
p4229
I3
sS'specially'
p4230
I1
sS'tired'
p4231
I4
sS'twiddles'
p4232
I1
sS'phones'
p4233
I100
sS'hating'
p4234
I1
sS'estimates'
p4235
I1
sS'direct'
p4236
I1
sS'likely'
p4237
I6
sS'follow'
p4238
I6
sS'compliance'
p4239
I2
sS'implemented'
p4240
I1
sS'specs'
p4241
I6
sS'jessica'
p4242
I1
sS'blue'
p4243
I11
sS'errors'
p4244
I1
sS'microsofts'
p4245
I3
sS'ugly'
p4246
I1
sS'hate'
p4247
I9
sS'specification'
p4248
I1
sS'selected'
p4249
I2
sS'fingers'
p4250
I1
sS'negates'
p4251
I2
sS'lights'
p4252
I2
sS'above'
p4253
I2
sS'new'
p4254
I112
sS'tips'
p4255
I1
sS'increasing'
p4256
I1
sS'ever'
p4257
I53
sS'told'
p4258
I64
sS'centura'
p4259
I4
sS'crunch'
p4260
I1
sS'shocked'
p4261
I4
sS'never'
p4262
I63
sS'here'
p4263
I19
sS'antiquated'
p4264
I1
sS'reported'
p4265
I5
sS'protection'
p4266
I1
sS'studio'
p4267
I5
sS'kicker'
p4268
I1
sS'hers'
p4269
I1
sS'affiliated'
p4270
I1
sS'buddy'
p4271
I1
sS'kids'
p4272
I2
sS'daughter'
p4273
I9
sS'items'
p4274
I9
sS'leaves'
p4275
I2
sS'changed'
p4276
I7
sS'completely'
p4277
I19
sS'expedited'
p4278
I1
sS'itunes'
p4279
I1
sS'credit'
p4280
I7
sS'smoke'
p4281
I1
sS'browsing'
p4282
I1
sS'que'
p4283
I5
sS'suitable'
p4284
I2
sS'changes'
p4285
I1
sS'fitting'
p4286
I1
sS'golden'
p4287
I1
sS'offs'
p4288
I1
sS'mobility'
p4289
I2
sS'belongs'
p4290
I1
sS'loveless'
p4291
I1
sS'excuse'
p4292
I3
sS'highly'
p4293
I10
sS'brought'
p4294
I6
sS'patience'
p4295
I1
sS'pound'
p4296
I1
sS'fixable'
p4297
I2
sS'txt'
p4298
I2
sS'forums'
p4299
I1
sS'unit'
p4300
I3
sS'overheat'
p4301
I1
sS'spoke'
p4302
I3
sS'browse'
p4303
I2
sS'mexico'
p4304
I1
sS'negative'
p4305
I5
sS'insult'
p4306
I1
sS'music'
p4307
I24
sS'therefore'
p4308
I2
sS'recommend'
p4309
I42
sS'type'
p4310
I9
sS'until'
p4311
I34
sS'equip'
p4312
I2
sS'standardized'
p4313
I1
sS'saber'
p4314
I1
sS'brings'
p4315
I1
sS'yahoo'
p4316
I1
sS'aware'
p4317
I4
sS'warn'
p4318
I3
sS'phone'
p4319
I1338
sS'quibbling'
p4320
I1
sS'warm'
p4321
I3
sS'hurl'
p4322
I1
sS'hole'
p4323
I1
sS'ware'
p4324
I1
sS'outdated'
p4325
I1
sS'blocking'
p4326
I1
sS'must'
p4327
I13
sS'locked'
p4328
I11
sS'room'
p4329
I6
sS'skipping'
p4330
I1
sS'setup'
p4331
I5
sS'tremendously'
p4332
I1
sS'mi'
p4333
I4
sS'roof'
p4334
I1
sS'mu'
p4335
I1
sS'movies'
p4336
I3
sS'itself'
p4337
I24
sS'mp'
p4338
I5
sS'install'
p4339
I8
sS'mr'
p4340
I3
sS'root'
p4341
I3
sS'example'
p4342
I4
sS'unmarked'
p4343
I1
sS'indicated'
p4344
I1
sS'skype'
p4345
I3
sS'india'
p4346
I3
sS'updated'
p4347
I1
sS'caused'
p4348
I2
sS'reviewing'
p4349
I1
sS'times'
p4350
I37
sS'uae'
p4351
I4
sS'guarantee'
p4352
I3
sS'ones'
p4353
I7
sS'end'
p4354
I31
sS'recovery'
p4355
I1
sS'carriers'
p4356
I3
sS'provide'
p4357
I8
sS'rib'
p4358
I1
sS'travel'
p4359
I2
sS'returning'
p4360
I15
sS'nuts'
p4361
I1
sS'feature'
p4362
I13
sS'machine'
p4363
I1
sS'far'
p4364
I19
sS'amazing'
p4365
I9
sS'adjacent'
p4366
I1
sS'answer'
p4367
I15
sS'disappoint'
p4368
I1
sS'faulty'
p4369
I2
sS'charging'
p4370
I24
sS'wallpapers'
p4371
I1
sS'badly'
p4372
I3
sS'costed'
p4373
I1
sS'description'
p4374
I13
sS'beauty'
p4375
I1
sS'replacing'
p4376
I3
sS'lag'
p4377
I2
sS'customs'
p4378
I2
sS'wrong'
p4379
I21
sS'floated'
p4380
I1
sS'suing'
p4381
I1
sS'law'
p4382
I2
sS'excited'
p4383
I5
sS'purchase'
p4384
I47
sS'attempt'
p4385
I5
sS'third'
p4386
I7
sS'sets'
p4387
I1
sS'recieved'
p4388
I1
sS'appreciate'
p4389
I1
sS'headquarters'
p4390
I1
sS'greet'
p4391
I1
sS'hamstrings'
p4392
I1
sS'maintain'
p4393
I1
sS'green'
p4394
I1
sS'goodbye'
p4395
I1
sS'enter'
p4396
I5
sS'worst'
p4397
I29
sS'operate'
p4398
I2
sS'order'
p4399
I26
sS'wine'
p4400
I1
sS'punctuation'
p4401
I1
sS'feedback'
p4402
I1
sS'office'
p4403
I10
sS'inconclusive'
p4404
I1
sS'satisfied'
p4405
I6
sS'deducted'
p4406
I1
sS'guidance'
p4407
I1
sS'keyboard'
p4408
I9
sS'responsive'
p4409
I2
sS'exchange'
p4410
I9
sS'before'
p4411
I42
sS'difference'
p4412
I5
sS'submitted'
p4413
I1
sS'fit'
p4414
I10
sS'personal'
p4415
I3
sS'fix'
p4416
I23
sS'expectations'
p4417
I2
sS'writing'
p4418
I5
sS'better'
p4419
I30
sS'imp'
p4420
I1
sS'workable'
p4421
I1
sS'weeks'
p4422
I30
sS'fin'
p4423
I1
sS'eventually'
p4424
I3
sS'affected'
p4425
I1
sS'combination'
p4426
I3
sS'safe'
p4427
I1
sS'break'
p4428
I5
sS'band'
p4429
I9
sS'reaches'
p4430
I1
sS'blink'
p4431
I1
sS'rental'
p4432
I1
sS'bank'
p4433
I1
sS'brightness'
p4434
I2
sS'notified'
p4435
I1
sS'potatoes'
p4436
I1
sS'reasonably'
p4437
I1
sS'rocks'
p4438
I1
sS'affiliate'
p4439
I1
sS'victory'
p4440
I1
sS'arrow'
p4441
I2
sS'each'
p4442
I11
sS'went'
p4443
I23
sS'side'
p4444
I6
sS'luck'
p4445
I12
sS'lifted'
p4446
I1
sS'meets'
p4447
I1
sS'series'
p4448
I2
sS'upload'
p4449
I1
sS'tip'
p4450
I2
sS'arrives'
p4451
I1
sS'trading'
p4452
I5
sS'hanged'
p4453
I2
sS'aids'
p4454
I1
sS'whit'
p4455
I1
sS'saturday'
p4456
I2
sS'overwrite'
p4457
I1
sS'network'
p4458
I35
sS'driving'
p4459
I2
sS'rs'
p4460
I3
sS'god'
p4461
I8
sS'caveman'
p4462
I1
sS'cameras'
p4463
I2
sS'hooked'
p4464
I2
sS'rd'
p4465
I4
sS're'
p4466
I18
sS'adjust'
p4467
I4
sS'ra'
p4468
I5
sS'got'
p4469
I100
sS'newly'
p4470
I1
sS'engineer'
p4471
I1
sS'venezuela'
p4472
I5
sS'sliding'
p4473
I1
sS'turning'
p4474
I14
sS'assured'
p4475
I2
sS'given'
p4476
I7
sS'free'
p4477
I17
sS'standard'
p4478
I3
sS'admits'
p4479
I1
sS'techno'
p4480
I3
sS'deceptive'
p4481
I1
sS'wanted'
p4482
I26
sS'certified'
p4483
I1
sS'publication'
p4484
I1
sS'renee'
p4485
I1
sS'lacerated'
p4486
I1
sS'starts'
p4487
I6
sS'professions'
p4488
I1
sS'inexpensive'
p4489
I2
sS'messages'
p4490
I17
sS'days'
p4491
I54
sS'used'
p4492
I52
sS'ups'
p4493
I1
sS'lousy'
p4494
I1
sS'shipped'
p4495
I8
sS'heck'
p4496
I1
sS'ats'
p4497
I1
sS'signature'
p4498
I1
sS'uses'
p4499
I5
sS'onto'
p4500
I4
sS'speeds'
p4501
I4
sS'user'
p4502
I11
sS'rang'
p4503
I1
sS'already'
p4504
I25
sS'daunting'
p4505
I1
sS'features'
p4506
I22
sS'jamaica'
p4507
I3
sS'reassure'
p4508
I1
sS'primary'
p4509
I2
sS'hoot'
p4510
I1
sS'hearing'
p4511
I3
sS'shopped'
p4512
I1
sS'rant'
p4513
I1
sS'disappearing'
p4514
I1
sS'another'
p4515
I65
sS'clarity'
p4516
I2
sS'electronic'
p4517
I4
sS'dysfunction'
p4518
I1
sS'toy'
p4519
I3
sS'service'
p4520
I130
sS'rejects'
p4521
I1
sS'top'
p4522
I15
sS'returns'
p4523
I2
sS'vibrate'
p4524
I2
sS'heights'
p4525
I1
sS'needed'
p4526
I21
sS'rates'
p4527
I1
sS'too'
p4528
I46
sS'tom'
p4529
I3
sS'inconvenient'
p4530
I2
sS'recent'
p4531
I2
sS'dogs'
p4532
I1
sS'tod'
p4533
I1
sS'listen'
p4534
I3
sS'guidelines'
p4535
I1
sS'paltry'
p4536
I2
sS'happily'
p4537
I1
sS'tool'
p4538
I1
sS'took'
p4539
I24
sS'somewhat'
p4540
I1
sS'wasted'
p4541
I5
sS'stocking'
p4542
I1
sS'distance'
p4543
I2
sS'messing'
p4544
I1
sS'target'
p4545
I1
sS'glorified'
p4546
I2
sS'enabled'
p4547
I1
sS'second'
p4548
I30
sS'ebay'
p4549
I2
sS'project'
p4550
I1
sS'matter'
p4551
I17
sS'idle'
p4552
I1
sS'disported'
p4553
I1
sS'silly'
p4554
I1
sS'speaking'
p4555
I1
sS'iron'
p4556
I1
sS'feeling'
p4557
I1
sS'powers'
p4558
I1
sS'minus'
p4559
I2
sS'mini'
p4560
I5
sS'rattle'
p4561
I1
sS'navigate'
p4562
I1
sS'ram'
p4563
I7
sS'mind'
p4564
I2
sS'mine'
p4565
I15
sS'anybody'
p4566
I2
sS'talking'
p4567
I8
sS'rat'
p4568
I1
sS'seen'
p4569
I7
sS'seem'
p4570
I15
sS'mins'
p4571
I2
sS'tells'
p4572
I7
sS'contents'
p4573
I2
sS'relatively'
p4574
I3
sS'forced'
p4575
I9
sS'strength'
p4576
I2
sS'genuine'
p4577
I1
sS'hauled'
p4578
I1
sS'latter'
p4579
I1
sS'responsible'
p4580
I1
sS'gripe'
p4581
I1
sS'isolated'
p4582
I1
sS'sound'
p4583
I20
sS'recommended'
p4584
I6
sS'materials'
p4585
I1
sS'luxury'
p4586
I1
sS'grips'
p4587
I1
sS'clunky'
p4588
I1
sS'shown'
p4589
I1
sS'exactly'
p4590
I3
sS'committing'
p4591
I1
sS'though'
p4592
I27
sS'regular'
p4593
I7
sS'germany'
p4594
I1
sS'letter'
p4595
I5
sS'gmail'
p4596
I1
sS'preassure'
p4597
I2
sS'preferences'
p4598
I1
sS'don'
p4599
I1
sS'special'
p4600
I2
sS'incomplete'
p4601
I1
sS'alarm'
p4602
I8
sS'clock'
p4603
I3
sS'metal'
p4604
I3
sS'spend'
p4605
I9
sS'definitely'
p4606
I11
sS'tech'
p4607
I11
sS'consumer'
p4608
I3
sS'responded'
p4609
I2
sS'came'
p4610
I27
sS'rebooting'
p4611
I1
sS'saying'
p4612
I18
sS'overpriced'
p4613
I1
sS'contacted'
p4614
I24
sS'ringtones'
p4615
I1
sS'labels'
p4616
I1
sS'connectivity'
p4617
I4
sS'pops'
p4618
I1
sS'attempts'
p4619
I6
sS'radio'
p4620
I1
sS'supplied'
p4621
I1
sS'stepping'
p4622
I1
sS'conclusion'
p4623
I1
sS'tempted'
p4624
I1
sS'cheaply'
p4625
I2
sS'touches'
p4626
I1
sS'busy'
p4627
I5
sS'layout'
p4628
I2
sS'menu'
p4629
I11
sS'explain'
p4630
I6
sS'sentence'
p4631
I4
sS'layman'
p4632
I1
sS'hrs'
p4633
I3
sS'theme'
p4634
I1
sS'screening'
p4635
I1
sS'matters'
p4636
I1
sS'folks'
p4637
I1
sS'folder'
p4638
I1
sS'oct'
p4639
I1
sS'stores'
p4640
I2
sS'borrowed'
p4641
I1
sS'tiles'
p4642
I3
sS'wide'
p4643
I3
sS'de'
p4644
I6
sS'stop'
p4645
I13
sS'preferred'
p4646
I1
sS'pocket'
p4647
I10
sS'shutting'
p4648
I1
sS'altogether'
p4649
I3
sS'report'
p4650
I2
sS'dr'
p4651
I1
sS'net'
p4652
I1
sS'comply'
p4653
I2
sS'runs'
p4654
I4
sS'bar'
p4655
I5
sS'patch'
p4656
I1
sS'twice'
p4657
I6
sS'bad'
p4658
I43
sS'discs'
p4659
I1
sS'shots'
p4660
I1
sS'carrier'
p4661
I23
sS'release'
p4662
I1
sS'wannabe'
p4663
I1
sS'automatic'
p4664
I1
sS'gotta'
p4665
I1
sS'thumbs'
p4666
I1
sS'respond'
p4667
I6
sS'lettering'
p4668
I1
sS'disaster'
p4669
I1
sS'keypad'
p4670
I3
sS'habit'
p4671
I1
sS'motherboard'
p4672
I5
sS'branding'
p4673
I1
sS'sensitivity'
p4674
I3
sS'testing'
p4675
I1
sS'beg'
p4676
I1
sS'nun'
p4677
I1
sS'decided'
p4678
I5
sS'result'
p4679
I3
sS'corrupt'
p4680
I1
sS'hammer'
p4681
I1
sS'best'
p4682
I13
sS'restocking'
p4683
I4
sS'said'
p4684
I46
sS'capacity'
p4685
I1
sS'waiting'
p4686
I10
sS'lots'
p4687
I3
sS'away'
p4688
I22
sS'rings'
p4689
I2
sS'unable'
p4690
I15
sS'melissa'
p4691
I4
sS'hopefully'
p4692
I8
sS'sorts'
p4693
I1
sS'lethargic'
p4694
I1
sS'preserve'
p4695
I1
sS'letting'
p4696
I2
sS'loose'
p4697
I3
sS'extend'
p4698
I1
sS'wm'
p4699
I1
sS'packaged'
p4700
I3
sS'however'
p4701
I21
sS'mazda'
p4702
I1
sS'loading'
p4703
I2
sS'wear'
p4704
I2
sS'wp'
p4705
I6
sS'downgrade'
p4706
I2
sS'blasted'
p4707
I2
sS'kitchen'
p4708
I1
sS'suggested'
p4709
I3
sS'received'
p4710
I43
sS'protect'
p4711
I4
sS'accident'
p4712
I1
sS'reprogrammed'
p4713
I2
sS'country'
p4714
I15
sS'ill'
p4715
I8
sS'heating'
p4716
I1
sS'against'
p4717
I6
sS'players'
p4718
I1
sS'games'
p4719
I8
sS'restarting'
p4720
I4
sS'lookin'
p4721
I2
sS'receiver'
p4722
I1
sS'argue'
p4723
I1
sS'com'
p4724
I4
sS'asked'
p4725
I21
sS'con'
p4726
I4
sS'tone'
p4727
I5
sS'appeared'
p4728
I1
sS'unexpectedly'
p4729
I3
sS'loader'
p4730
I1
sS'tons'
p4731
I1
sS'viruses'
p4732
I1
sS'path'
p4733
I1
sS'loaded'
p4734
I1
sS'refill'
p4735
I3
sS'trust'
p4736
I4
sS'november'
p4737
I5
sS'speak'
p4738
I6
sS'proceeded'
p4739
I1
sS'puts'
p4740
I2
sS'basis'
p4741
I6
sS'remained'
p4742
I3
sS'fro'
p4743
I1
sS'three'
p4744
I17
sS'been'
p4745
I50
sS'quickly'
p4746
I2
sS'ting'
p4747
I1
sS'much'
p4748
I56
sS'refurbished'
p4749
I17
sS'interest'
p4750
I1
sS'basic'
p4751
I11
sS'expected'
p4752
I9
sS'dozens'
p4753
I1
sS'duties'
p4754
I1
sS'threw'
p4755
I2
sS'website'
p4756
I12
sS'life'
p4757
I20
sS'eastern'
p4758
I1
sS'sag'
p4759
I1
sS'concerning'
p4760
I1
sS'sooooo'
p4761
I1
sS'search'
p4762
I6
sS'shattering'
p4763
I1
sS'generals'
p4764
I2
sS'personally'
p4765
I4
sS'catch'
p4766
I1
sS'worked'
p4767
I33
sS'sad'
p4768
I5
sS'sender'
p4769
I3
sS'exception'
p4770
I1
sS'save'
p4771
I20
sS'publicly'
p4772
I1
sS'launches'
p4773
I1
sS'professionally'
p4774
I1
sS'air'
p4775
I2
sS'lesser'
p4776
I1
sS'ail'
p4777
I1
sS'near'
p4778
I8
sS'suppose'
p4779
I4
sS'cracked'
p4780
I4
sS'voice'
p4781
I17
sS'procedure'
p4782
I1
sS'mistake'
p4783
I6
sS'seven'
p4784
I1
sS'cons'
p4785
I6
sS'played'
p4786
I3
sS'whine'
p4787
I1
sS'ir'
p4788
I2
sS'accessories'
p4789
I8
sS'ii'
p4790
I19
sS'player'
p4791
I5
sS'cant'
p4792
I90
sS'im'
p4793
I81
sS'io'
p4794
I2
sS'victims'
p4795
I1
sS'ignoring'
p4796
I1
sS'id'
p4797
I16
sS'trusted'
p4798
I1
sS'damaged'
p4799
I3
sS'lacking'
p4800
I4
sS'perform'
p4801
I2
sS'suggest'
p4802
I2
sS'make'
p4803
I72
sS'recurrent'
p4804
I1
sS'clearly'
p4805
I9
sS'craigslist'
p4806
I1
sS'split'
p4807
I1
sS'unfortunate'
p4808
I2
sS'several'
p4809
I18
sS'showing'
p4810
I4
sS'unconcern'
p4811
I1
sS'european'
p4812
I4
sS'fairly'
p4813
I2
sS'metropcs'
p4814
I1
sS'memoria'
p4815
I2
sS'inadvertently'
p4816
I1
sS'blames'
p4817
I1
sS'hang'
p4818
I4
sS'rain'
p4819
I1
sS'hand'
p4820
I7
sS'discription'
p4821
I2
sS'documents'
p4822
I1
sS'ownership'
p4823
I1
sS'positives'
p4824
I3
sS'blamed'
p4825
I1
sS'thoughts'
p4826
I1
sS'kid'
p4827
I1
sS'mentioning'
p4828
I1
sS'punctuate'
p4829
I1
sS'kept'
p4830
I8
sS'programs'
p4831
I1
sS'youre'
p4832
I11
sS'supervisors'
p4833
I1
sS'camcorder'
p4834
I1
sS'practices'
p4835
I1
sS'greatest'
p4836
I1
sS'pandora'
p4837
I2
sS'mother'
p4838
I6
sS'claims'
p4839
I2
sS'paradigm'
p4840
I1
sS'corporate'
p4841
I3
sS'yours'
p4842
I1
sS'left'
p4843
I15
sS'graded'
p4844
I1
sS'yen'
p4845
I1
sS'photo'
p4846
I3
sS'unfair'
p4847
I1
sS'aside'
p4848
I3
sS'assigned'
p4849
I1
sS'financially'
p4850
I1
sS'thanks'
p4851
I4
sS'human'
p4852
I3
sS'facts'
p4853
I1
sS'followed'
p4854
I1
sS'yes'
p4855
I12
sS'credited'
p4856
I1
sS'yet'
p4857
I13
sS'previous'
p4858
I7
sS'adding'
p4859
I1
sS'buyers'
p4860
I7
sS'teenaged'
p4861
I1
sS'family'
p4862
I6
sS'vibration'
p4863
I2
sS'had'
p4864
I203
sS'ideal'
p4865
I4
sS'hay'
p4866
I1
sS'potential'
p4867
I3
sS'teenager'
p4868
I1
sS'easy'
p4869
I7
sS'whatsapp'
p4870
I1
sS'has'
p4871
I128
sS'tolerable'
p4872
I1
sS'gave'
p4873
I18
sS'shoulder'
p4874
I1
sS'usable'
p4875
I2
sS'explained'
p4876
I1
sS'breaks'
p4877
I3
sS'possible'
p4878
I9
sS'possibly'
p4879
I6
sS'lcd'
p4880
I1
sS'background'
p4881
I2
sS'wanting'
p4882
I2
sS'unique'
p4883
I1
sS'advanced'
p4884
I4
sS'apart'
p4885
I1
sS'desire'
p4886
I1
sS'sliced'
p4887
I1
sS'nevermind'
p4888
I2
sS'appearing'
p4889
I2
sS'airhead'
p4890
I1
sS'gift'
p4891
I8
sS'glitch'
p4892
I3
sS'orlando'
p4893
I1
sS'zoom'
p4894
I2
sS'theyre'
p4895
I7
sS'specific'
p4896
I2
sS'steps'
p4897
I1
sS'night'
p4898
I11
sS'hung'
p4899
I1
sS'security'
p4900
I3
sS'whomever'
p4901
I1
sS'demonstrated'
p4902
I2
sS'portuguese'
p4903
I1
sS'attorney'
p4904
I2
sS'right'
p4905
I32
sS'honored'
p4906
I1
sS'deal'
p4907
I17
sS'people'
p4908
I30
sS'sends'
p4909
I2
sS'manual'
p4910
I7
sS'somehow'
p4911
I5
sS'dead'
p4912
I14
sS'intern'
p4913
I1
sS'sure'
p4914
I27
sS'jupiter'
p4915
I1
sS'invoice'
p4916
I1
sS'escape'
p4917
I1
sS'dear'
p4918
I1
sS'multiple'
p4919
I9
sS'xbox'
p4920
I1
sS'asia'
p4921
I1
sS'tutorial'
p4922
I1
sS'confusing'
p4923
I3
sS'cede'
p4924
I1
sS'total'
p4925
I11
sS'bottom'
p4926
I9
sS'notification'
p4927
I5
sS'ear'
p4928
I3
sS'normal'
p4929
I6
sS'comments'
p4930
I2
sS'everything'
p4931
I29
sS'asking'
p4932
I5
sS'bra'
p4933
I1
sS'denied'
p4934
I3
sS'fon'
p4935
I2
sS'beating'
p4936
I1
sS'christmas'
p4937
I5
sS'core'
p4938
I1
sS'deleted'
p4939
I3
sS'marketing'
p4940
I2
sS'hsn'
p4941
I2
sS'doesnt'
p4942
I67
sS'defensive'
p4943
I1
sS'losing'
p4944
I2
sS'eye'
p4945
I1
sS'post'
p4946
I5
sS'manufacturing'
p4947
I2
sS'super'
p4948
I7
sS'permitted'
p4949
I1
sS'plug'
p4950
I11
sS'limitation'
p4951
I1
sS'theirs'
p4952
I1
sS'dollars'
p4953
I7
sS'months'
p4954
I58
sS'misleading'
p4955
I2
sS'plus'
p4956
I11
sS'afternoon'
p4957
I2
sS'gingerbread'
p4958
I1
sS'efforts'
p4959
I2
sS'sept'
p4960
I1
sS'automatically'
p4961
I8
sS'match'
p4962
I3
sS'treble'
p4963
I2
sS'nerve'
p4964
I1
sS'raised'
p4965
I1
sS'managers'
p4966
I1
sS'lied'
p4967
I4
sS'ola'
p4968
I2
sS'wasting'
p4969
I2
sS'material'
p4970
I1
sS'delighted'
p4971
I1
sS'son'
p4972
I3
sS'down'
p4973
I40
sS'complaints'
p4974
I4
sS'beings'
p4975
I1
sS'donated'
p4976
I1
sS'wrap'
p4977
I1
sS'old'
p4978
I27
sS'automated'
p4979
I3
sS'often'
p4980
I3
sS'annoyance'
p4981
I2
sS'rely'
p4982
I1
sS'cleared'
p4983
I1
sS'support'
p4984
I51
sS'constantly'
p4985
I13
sS'available'
p4986
I16
sS'inspected'
p4987
I1
sS'lags'
p4988
I3
sS'gig'
p4989
I2
sS'stuck'
p4990
I16
sS'accordingly'
p4991
I1
sS'resulted'
p4992
I1
sS'call'
p4993
I77
sS'wat'
p4994
I1
sS'war'
p4995
I2
sS'happy'
p4996
I17
sS'head'
p4997
I6
sS'battery'
p4998
I87
sS'form'
p4999
I5
sS'offer'
p5000
I12
sS'fascination'
p5001
I1
sS'attempted'
p5002
I4
sS'wireless'
p5003
I15
sS'failure'
p5004
I2
sS'hear'
p5005
I29
sS'elderly'
p5006
I1
sS'removed'
p5007
I4
sS'true'
p5008
I8
sS'otter'
p5009
I1
sS'reset'
p5010
I8
sS'admiration'
p5011
I1
sS'responding'
p5012
I3
sS'versions'
p5013
I3
sS'prevents'
p5014
I1
sS'inside'
p5015
I6
sS'sups'
p5016
I1
sS'attached'
p5017
I2
sS'maximum'
p5018
I1
sS'devices'
p5019
I9
sS'tell'
p5020
I20
sS'bangladesh'
p5021
I1
sS'complications'
p5022
I1
sS'hassle'
p5023
I8
sS'intrusive'
p5024
I1
sS'delete'
p5025
I4
sS'mails'
p5026
I2
sS'promises'
p5027
I1
sS'hotter'
p5028
I1
sS'upset'
p5029
I4
sS'store'
p5030
I24
sS'proven'
p5031
I1
sS'sale'
p5032
I2
sS'qwerty'
p5033
I2
sS'sometime'
p5034
I1
sS'exist'
p5035
I1
sS'promised'
p5036
I2
sS'request'
p5037
I8
sS'door'
p5038
I1
sS'awhile'
p5039
I1
sS'annoying'
p5040
I13
sS'ericsson'
p5041
I6
sS'dealer'
p5042
I1
sS'physical'
p5043
I2
sS'looked'
p5044
I11
sS'password'
p5045
I6
sS'techs'
p5046
I2
sS'no'
p5047
I235
sS'na'
p5048
I3
sS'whereas'
p5049
I1
sS'excel'
p5050
I1
sS'actor'
p5051
I1
sS'credibility'
p5052
I1
sS'falsely'
p5053
I2
sS'holding'
p5054
I2
sS'digital'
p5055
I1
sS'warehouse'
p5056
I1
sS'unwilling'
p5057
I2
sS'leds'
p5058
I2
sS'nu'
p5059
I1
sS'realize'
p5060
I1
sS'tic'
p5061
I1
sS'picture'
p5062
I20
sS'reconsider'
p5063
I1
sS'models'
p5064
I1
sS'dies'
p5065
I4
sS'why'
p5066
I30
sS'felt'
p5067
I5
sS'update'
p5068
I27
sS'fell'
p5069
I2
sS'scores'
p5070
I1
sS'rolling'
p5071
I1
sS'hurt'
p5072
I1
sS'weekend'
p5073
I2
sS'unlocking'
p5074
I1
sS'died'
p5075
I12
sS'began'
p5076
I3
sS'happening'
p5077
I2
sS'bullet'
p5078
I2
sS'glass'
p5079
I12
sS'grading'
p5080
I1
sS'together'
p5081
I6
sS'gorilla'
p5082
I2
sS'loyal'
p5083
I3
sS'text'
p5084
I29
sS'reception'
p5085
I11
sS'time'
p5086
I121
sS'push'
p5087
I2
sS'serious'
p5088
I5
sS'updates'
p5089
I5
sS'songs'
p5090
I3
sS'precise'
p5091
I1
sS'concept'
p5092
I1
sS'cincinnati'
p5093
I1
sS'rom'
p5094
I4
sS'chain'
p5095
I2
sS'switched'
p5096
I3
sS'reviewers'
p5097
I1
sS'excellent'
p5098
I6
sS'activated'
p5099
I6
sS'themes'
p5100
I1
sS'manager'
p5101
I5
sS'mismanages'
p5102
I1
sS'grateful'
p5103
I1
sS'skin'
p5104
I1
sS'bomber'
p5105
I2
sS'rot'
p5106
I1
sS'certainly'
p5107
I1
sS'suicide'
p5108
I2
sS'depend'
p5109
I2
sS'nexus'
p5110
I2
sS'zone'
p5111
I2
sS'honoring'
p5112
I1
sS'unpack'
p5113
I1
sS'flash'
p5114
I10
sS'vex'
p5115
I1
sS'aron'
p5116
I1
sS'click'
p5117
I6
sS'answered'
p5118
I3
sS'finally'
p5119
I25
sS'dissatisfied'
p5120
I3
sS'marks'
p5121
I1
sS'discovering'
p5122
I1
sS'phonemes'
p5123
I1
sS'eliminate'
p5124
I1
sS'brown'
p5125
I1
sS'downloading'
p5126
I3
sS'string'
p5127
I1
sS'prepaid'
p5128
I10
sS'frequencies'
p5129
I3
sS'keeping'
p5130
I2
sS'seemingly'
p5131
I1
sS'choice'
p5132
I3
sS'emergencies'
p5133
I1
sS'anonymous'
p5134
I1
sS'advised'
p5135
I3
sS'word'
p5136
I10
sS'trouble'
p5137
I8
sS'exact'
p5138
I4
sS'minute'
p5139
I2
sS'cool'
p5140
I7
sS'dim'
p5141
I2
sS'scandinavia'
p5142
I1
sS'impressive'
p5143
I1
sS'slip'
p5144
I2
sS'level'
p5145
I6
sS'did'
p5146
I93
sS'die'
p5147
I4
sS'fragile'
p5148
I1
sS'hawaii'
p5149
I1
sS'standards'
p5150
I3
sS'leave'
p5151
I3
sS'item'
p5152
I28
sS'defaults'
p5153
I1
sS'team'
p5154
I2
sS'quick'
p5155
I3
sS'loads'
p5156
I1
sS'mo'
p5157
I2
sS'added'
p5158
I4
sS'dis'
p5159
I4
sS'prevent'
p5160
I1
sS'droid'
p5161
I3
sS'htc'
p5162
I6
sS'regret'
p5163
I6
sS'dealing'
p5164
I3
sS'discover'
p5165
I1
sS'sign'
p5166
I3
sS'slowed'
p5167
I1
sS'cost'
p5168
I9
sS'diverts'
p5169
I2
sS'port'
p5170
I9
sS'substitute'
p5171
I1
sS'headset'
p5172
I2
sS'appear'
p5173
I5
sS'mt'
p5174
I3
sS'heres'
p5175
I4
sS'assistance'
p5176
I1
sS'rome'
p5177
I1
sS'current'
p5178
I3
sS'suspect'
p5179
I3
sS'goes'
p5180
I15
sS'international'
p5181
I38
sS'falling'
p5182
I4
sS'boost'
p5183
I9
sS'supporting'
p5184
I1
sS'ms'
p5185
I1
sS'clerk'
p5186
I1
sS'french'
p5187
I1
sS'understanding'
p5188
I1
sS'water'
p5189
I3
sS'downloaded'
p5190
I11
sS'slow'
p5191
I33
sS'witch'
p5192
I1
sS'address'
p5193
I9
sS'alone'
p5194
I3
sS'along'
p5195
I4
sS'hoops'
p5196
I2
sS'appears'
p5197
I8
sS'change'
p5198
I19
sS'wait'
p5199
I10
sS'box'
p5200
I30
sS'boy'
p5201
I4
sS'incoming'
p5202
I3
sS'noticeable'
p5203
I1
sS'canadian'
p5204
I2
sS'shift'
p5205
I1
sS'rethink'
p5206
I1
sS'queue'
p5207
I1
sS'bangs'
p5208
I1
sS'diagnosed'
p5209
I1
sS'suggestion'
p5210
I2
sS'prude'
p5211
I1
sS'usually'
p5212
I4
sS'weird'
p5213
I3
sS'navigation'
p5214
I3
sS'nowhere'
p5215
I3
sS'tasks'
p5216
I1
sS'useful'
p5217
I5
sS'lasts'
p5218
I2
sS'extra'
p5219
I11
sS'problematic'
p5220
I1
sS'marked'
p5221
I2
sS'bloody'
p5222
I1
sS'kayak'
p5223
I1
sS'sincerely'
p5224
I2
sS'pixi'
p5225
I2
sS'penalized'
p5226
I1
sS'embarrassing'
p5227
I3
sS'tuesday'
p5228
I1
sS'mobil'
p5229
I3
sS'market'
p5230
I11
sS'trinidad'
p5231
I2
sS'este'
p5232
I3
sS'working'
p5233
I62
sS'prove'
p5234
I1
sS'positive'
p5235
I3
sS'angry'
p5236
I1
sS'france'
p5237
I1
sS'connector'
p5238
I4
sS'live'
p5239
I7
sS'going'
p5240
I44
sS'prey'
p5241
I1
sS'iphone'
p5242
I28
sS'wondering'
p5243
I1
sS'memory'
p5244
I48
sS'tape'
p5245
I1
sS'associated'
p5246
I2
sS'thru'
p5247
I2
sS'today'
p5248
I15
sS'unify'
p5249
I1
sS'scratched'
p5250
I2
sS'smudged'
p5251
I1
sS'faith'
p5252
I2
sS'clicking'
p5253
I3
sS'acceptable'
p5254
I1
sS'apparent'
p5255
I1
sS'clients'
p5256
I1
sS'clue'
p5257
I1
sS'visual'
p5258
I1
sS'everywhere'
p5259
I2
sS'scratches'
p5260
I4
sS'cases'
p5261
I2
sS'effort'
p5262
I4
sS'keeps'
p5263
I10
sS'fly'
p5264
I1
sS'anything'
p5265
I40
sS'dialed'
p5266
I5
sS'car'
p5267
I4
sS'originally'
p5268
I1
sS'pretend'
p5269
I1
sS'soul'
p5270
I1
sS'cat'
p5271
I1
sS'reviews'
p5272
I22
sS'labeled'
p5273
I3
sS'sour'
p5274
I1
sS'renders'
p5275
I1
sS'hope'
p5276
I16
sS'cam'
p5277
I1
sS'cal'
p5278
I1
sS'following'
p5279
I4
sS'making'
p5280
I15
sS'arrive'
p5281
I1
sS'slightest'
p5282
I1
sS'cad'
p5283
I2
sS'geeky'
p5284
I1
sS'exchanged'
p5285
I2
sS'crazy'
p5286
I1
sS'figure'
p5287
I9
sS'mirrors'
p5288
I1
sS'garbled'
p5289
I2
sS'december'
p5290
I3
sS'geeks'
p5291
I1
sS'confused'
p5292
I1
sS'agent'
p5293
I5
sS'heard'
p5294
I7
sS'dropped'
p5295
I16
sS'hides'
p5296
I1
sS'allowed'
p5297
I1
sS'counting'
p5298
I1
sS'clothing'
p5299
I1
sS'pink'
p5300
I1
sS'hinge'
p5301
I2
sS'fortunately'
p5302
I1
sS'tilt'
p5303
I2
sS'jellybean'
p5304
I2
sS'brand'
p5305
I18
sS'meager'
p5306
I1
sS'freezes'
p5307
I14
sS'write'
p5308
I12
sS'till'
p5309
I2
sS'sunday'
p5310
I1
sS'vital'
p5311
I1
sS'fps'
p5312
I2
sS'swore'
p5313
I1
sS'tile'
p5314
I3
sS'absolute'
p5315
I5
sS'eight'
p5316
I2
sS'economy'
p5317
I1
sS'map'
p5318
I3
sS'staying'
p5319
I1
sS'designer'
p5320
I1
sS'explorer'
p5321
I1
sS'crashes'
p5322
I6
sS'huge'
p5323
I5
sS'may'
p5324
I18
sS'reps'
p5325
I2
sS'spot'
p5326
I4
sS'disgusted'
p5327
I3
sS'applications'
p5328
I13
sS'mac'
p5329
I2
sS'designed'
p5330
I5
sS'date'
p5331
I7
sS'such'
p5332
I14
sS'suck'
p5333
I1
sS'data'
p5334
I26
sS'compatibility'
p5335
I2
sS'man'
p5336
I3
sS'stress'
p5337
I3
sS'surfing'
p5338
I1
sS'remember'
p5339
I1
sS'whenever'
p5340
I2
sS'maybe'
p5341
I13
sS'st'
p5342
I8
sS'hon'
p5343
I1
sS'switch'
p5344
I12
sS'sh'
p5345
I3
sS'unfreeze'
p5346
I2
sS'sn'
p5347
I2
sS'deceive'
p5348
I1
sS'sc'
p5349
I1
sS'tall'
p5350
I1
sS'talk'
p5351
I33
sS'sd'
p5352
I20
sS'refund'
p5353
I37
sS'breaking'
p5354
I1
sS'distributors'
p5355
I3
sS'repair'
p5356
I20
sS'indeed'
p5357
I1
sS'pointed'
p5358
I2
sS'exchanges'
p5359
I1
sS'mainly'
p5360
I1
sS'unacceptable'
p5361
I7
sS'kong'
p5362
I1
sS'ended'
p5363
I9
sS'ogle'
p5364
I1
sS'whats'
p5365
I4
sS'still'
p5366
I74
sS'group'
p5367
I2
sS'thank'
p5368
I3
sS'internationally'
p5369
I2
sS'menus'
p5370
I1
sS'chips'
p5371
I3
sS'reacting'
p5372
I1
sS'hot'
p5373
I6
sS'platform'
p5374
I2
sS'window'
p5375
I5
sS'offers'
p5376
I3
sS'policy'
p5377
I7
sS'mail'
p5378
I9
sS'main'
p5379
I9
sS'texas'
p5380
I3
sS'happened'
p5381
I7
sS'correspondence'
p5382
I2
sS'non'
p5383
I17
sS'emailed'
p5384
I8
sS'conversations'
p5385
I2
sS'rake'
p5386
I1
sS'sooner'
p5387
I1
sS'records'
p5388
I1
sS'touching'
p5389
I1
sS'compelled'
p5390
I1
sS'half'
p5391
I16
sS'not'
p5392
I683
sS'nov'
p5393
I2
sS'killed'
p5394
I1
sS'nor'
p5395
I6
sS'possess'
p5396
I1
sS'wont'
p5397
I44
sS'execute'
p5398
I1
sS'name'
p5399
I8
sS'january'
p5400
I1
sS'drop'
p5401
I7
sS'latest'
p5402
I2
sS'debating'
p5403
I1
sS'careless'
p5404
I1
sS'repaired'
p5405
I6
sS'clack'
p5406
I1
sS'turtle'
p5407
I1
sS'rethinking'
p5408
I1
sS'en'
p5409
I1
sS'retrieve'
p5410
I1
sS'whosoever'
p5411
I1
sS'hiccups'
p5412
I1
sS'ed'
p5413
I8
sS'receipt'
p5414
I5
sS'yeah'
p5415
I2
sS'unlock'
p5416
I22
sS'shouldnt'
p5417
I9
sS'ha'
p5418
I8
sS'ex'
p5419
I1
sS'entering'
p5420
I1
sS'pantalla'
p5421
I1
sS'operand'
p5422
I1
sS'happen'
p5423
I13
sS'morning'
p5424
I5
sS'eq'
p5425
I2
sS'es'
p5426
I17
sS'plans'
p5427
I2
sS'canada'
p5428
I5
sS'living'
p5429
I3
sS'ultimately'
p5430
I2
sS'opened'
p5431
I12
sS'space'
p5432
I19
sS'blu'
p5433
I35
sS'factory'
p5434
I21
sS'increase'
p5435
I3
sS'contained'
p5436
I1
sS'stupid'
p5437
I6
sS'void'
p5438
I4
sS'internet'
p5439
I33
sS'suggesting'
p5440
I1
sS'receiving'
p5441
I5
sS'sensor'
p5442
I6
sS'correct'
p5443
I3
sS'assurance'
p5444
I1
sS'unifying'
p5445
I1
sS'earlier'
p5446
I2
sS'state'
p5447
I5
sS'hefty'
p5448
I1
sS'quite'
p5449
I4
sS'complicated'
p5450
I2
sS'besides'
p5451
I1
sS'obligation'
p5452
I2
sS'clicked'
p5453
I2
sS'card'
p5454
I90
sS'care'
p5455
I18
sS'bloatware'
p5456
I1
sS'training'
p5457
I1
sS'fixed'
p5458
I8
sS'shocking'
p5459
I1
sS'language'
p5460
I7
sS'selections'
p5461
I1
sS'standby'
p5462
I3
sS'yup'
p5463
I1
sS'headphones'
p5464
I5
sS'programming'
p5465
I1
sS'tries'
p5466
I3
sS'honest'
p5467
I1
sS'turn'
p5468
I43
sS'place'
p5469
I11
sS'massive'
p5470
I2
sS'router'
p5471
I3
sS'turd'
p5472
I1
sS'star'
p5473
I17
sS'neglect'
p5474
I1
sS'waited'
p5475
I2
sS'origin'
p5476
I2
sS'initial'
p5477
I3
sS'saving'
p5478
I2
sS'revenue'
p5479
I1
sS'predictive'
p5480
I3
sS'yourself'
p5481
I10
sS'long'
p5482
I24
sS'directly'
p5483
I6
sS'spanish'
p5484
I4
sS'carry'
p5485
I1
sS'impossible'
p5486
I11
sS'message'
p5487
I16
sS'open'
p5488
I20
sS'tomorrow'
p5489
I1
sS'size'
p5490
I8
sS'city'
p5491
I1
sS'little'
p5492
I16
sS'ian'
p5493
I2
sS'checked'
p5494
I9
sS'silent'
p5495
I3
sS'europe'
p5496
I3
sS'remotely'
p5497
I1
sS'anyone'
p5498
I25
sS'indicate'
p5499
I1
sS'checker'
p5500
I1
sS'moisture'
p5501
I2
sS'typing'
p5502
I2
sS'white'
p5503
I5
sS'uris'
p5504
I1
sS'friend'
p5505
I1
sS'gives'
p5506
I1
sS'exploring'
p5507
I1
sS'mostly'
p5508
I2
sS'foolhardy'
p5509
I1
sS'hum'
p5510
I1
sS'thay'
p5511
I3
sS'continuous'
p5512
I1
sS'huh'
p5513
I2
sS'accurately'
p5514
I2
sS'released'
p5515
I2
sS'ridiculous'
p5516
I4
sS'returnable'
p5517
I2
sS'quirky'
p5518
I1
sS'fooled'
p5519
I1
sS'copy'
p5520
I1
sS'specify'
p5521
I1
sS'boyfriend'
p5522
I2
sS'professionals'
p5523
I1
sS'rugged'
p5524
I1
sS'unfortunately'
p5525
I8
sS'crack'
p5526
I3
sS'require'
p5527
I2
sS'transferred'
p5528
I1
sS'future'
p5529
I6
sS'were'
p5530
I53
sS'cards'
p5531
I18
sS'college'
p5532
I1
sS'outcome'
p5533
I1
sS'dissapointed'
p5534
I2
sS'browser'
p5535
I2
sS'pre'
p5536
I4
sS'files'
p5537
I2
sS'gathering'
p5538
I2
sS'san'
p5539
I3
sS'sam'
p5540
I1
sS'sal'
p5541
I1
sS'pro'
p5542
I4
sS'turned'
p5543
I13
sS'locations'
p5544
I1
sS'reno'
p5545
I1
sS'voices'
p5546
I1
sS'slam'
p5547
I1
sS'mesquite'
p5548
I1
sS'distorted'
p5549
I1
sS'exchanging'
p5550
I1
sS'sells'
p5551
I1
sS'recover'
p5552
I1
sS'saw'
p5553
I3
sS'informing'
p5554
I1
sS'sat'
p5555
I3
sS'mislead'
p5556
I1
sS'speakers'
p5557
I3
sS'squat'
p5558
I1
sS'abysmal'
p5559
I1
sS'answering'
p5560
I1
sS'ideas'
p5561
I1
sS'hotspot'
p5562
I1
sS'note'
p5563
I40
sS'equipment'
p5564
I1
sS'nuances'
p5565
I1
sS'squad'
p5566
I2
sS'take'
p5567
I37
sS'online'
p5568
I16
sS'performance'
p5569
I3
sS'wonder'
p5570
I4
sS'switching'
p5571
I3
sS'channel'
p5572
I1
sS'towers'
p5573
I1
sS'urge'
p5574
I1
sS'begin'
p5575
I2
sS'commonplace'
p5576
I1
sS'pain'
p5577
I3
sS'opposite'
p5578
I2
sS'track'
p5579
I6
sS'price'
p5580
I27
sS'knew'
p5581
I6
sS'palette'
p5582
I1
sS'paid'
p5583
I27
sS'insanity'
p5584
I1
sS'slowest'
p5585
I3
sS'pair'
p5586
I1
sS'america'
p5587
I4
sS'pages'
p5588
I1
sS'icon'
p5589
I6
sS'forever'
p5590
I11
sS'especially'
p5591
I7
sS'notifications'
p5592
I1
sS'considered'
p5593
I3
sS'later'
p5594
I24
sS'drive'
p5595
I2
sS'tooth'
p5596
I1
sS'arguably'
p5597
I1
sS'professional'
p5598
I1
sS'typically'
p5599
I1
sS'filing'
p5600
I1
sS'shop'
p5601
I6
sS'rating'
p5602
I8
sS'shot'
p5603
I1
sS'foaming'
p5604
I1
sS'show'
p5605
I7
sS'german'
p5606
I3
sS'cheap'
p5607
I28
sS'sites'
p5608
I4
sS'discovered'
p5609
I3
sS'bright'
p5610
I1
sS'inconsistent'
p5611
I2
sS'misrepresenting'
p5612
I1
sS'corner'
p5613
I2
sS'fifth'
p5614
I1
sS'crashing'
p5615
I1
sS'aint'
p5616
I3
sS'upgrade'
p5617
I7
sS'slop'
p5618
I1
sS'uninstalling'
p5619
I1
sS'title'
p5620
I3
sS'enough'
p5621
I20
sS'either'
p5622
I29
sS'slog'
p5623
I1
sS'black'
p5624
I8
sS'overdrew'
p5625
I1
sS'posted'
p5626
I3
sS'telefono'
p5627
I2
sS'dispute'
p5628
I1
sS'lg'
p5629
I6
sS'fades'
p5630
I2
sS'closed'
p5631
I2
sS'hungarian'
p5632
I1
sS'upgradeable'
p5633
I2
sS'designated'
p5634
I1
sS'expectation'
p5635
I1
sS'truly'
p5636
I2
sS'volume'
p5637
I18
sS'cannot'
p5638
I45
sS'nearly'
p5639
I4
sS'installed'
p5640
I9
sS'freaking'
p5641
I1
sS'regarding'
p5642
I3
sS'keyboards'
p5643
I1
sS'frustrated'
p5644
I1
sS'communicates'
p5645
I1
sS'isnt'
p5646
I13
sS'summary'
p5647
I2
sS'jokes'
p5648
I1
sS'miles'
p5649
I2
sS'source'
p5650
I2
sS'liable'
p5651
I2
sS'coded'
p5652
I1
sS'where'
p5653
I27
sS'xmas'
p5654
I1
sS'husband'
p5655
I5
sS'bulgaria'
p5656
I1
sS'ignored'
p5657
I1
sS'honesty'
p5658
I1
sS'imposter'
p5659
I1
sS'signs'
p5660
I1
sS'bargain'
p5661
I1
sS'relative'
p5662
I1
sS'digicel'
p5663
I2
sS'anyways'
p5664
I1
sS'ignores'
p5665
I1
sS'seal'
p5666
I3
sS'apologies'
p5667
I1
sS'calendar'
p5668
I1
sS'ruined'
p5669
I2
sS'concern'
p5670
I1
sS'um'
p5671
I2
sS'fails'
p5672
I6
sS'detect'
p5673
I4
sS'ways'
p5674
I1
sS'jumped'
p5675
I1
sS'review'
p5676
I16
sS'parental'
p5677
I2
sS'definite'
p5678
I1
sS'representatives'
p5679
I2
sS'label'
p5680
I1
sS'teeny'
p5681
I1
sS'behind'
p5682
I3
sS'bureau'
p5683
I1
sS'between'
p5684
I8
sS'mandarin'
p5685
I1
sS'ui'
p5686
I4
sS'reading'
p5687
I5
sS'across'
p5688
I2
sS'wouldve'
p5689
I2
sS'affordable'
p5690
I1
sS'notice'
p5691
I5
sS'august'
p5692
I1
sS'vertical'
p5693
I1
sS'receivers'
p5694
I1
sS'originated'
p5695
I1
sS'screen'
p5696
I91
sS'points'
p5697
I3
sS'killing'
p5698
I1
sS'blame'
p5699
I1
sS'jo'
p5700
I1
sS'spare'
p5701
I1
sS'coma'
p5702
I1
sS'pixels'
p5703
I2
sS'dates'
p5704
I1
sS'rugby'
p5705
I1
sS'tuck'
p5706
I1
sS'many'
p5707
I29
sS'voicemail'
p5708
I2
sS'according'
p5709
I2
sS'contract'
p5710
I14
sS'somewhere'
p5711
I1
sS'tour'
p5712
I1
sS'disappointment'
p5713
I1
sS'razrs'
p5714
I4
sS'comes'
p5715
I12
sS'nearby'
p5716
I1
sS'siii'
p5717
I5
sS'claiming'
p5718
I2
sS'color'
p5719
I2
sS'effective'
p5720
I1
sS'por'
p5721
I4
sS'period'
p5722
I6
sS'pop'
p5723
I5
sS'customers'
p5724
I11
sS'satisfaction'
p5725
I2
sS'inexplicably'
p5726
I1
sS'jammed'
p5727
I1
sS'confirm'
p5728
I1
sS'iterations'
p5729
I1
sS'cancel'
p5730
I1
sS'moreover'
p5731
I1
sS'pod'
p5732
I1
sS'consider'
p5733
I8
sS'considering'
p5734
I6
sS'destroyed'
p5735
I1
sS'unusual'
p5736
I2
sS'mensa'
p5737
I1
sS'capable'
p5738
I3
sS'west'
p5739
I1
sS'invert'
p5740
I1
sS'informed'
p5741
I5
sS'vacation'
p5742
I2
sS'mark'
p5743
I1
sS'cared'
p5744
I1
sS'almighty'
p5745
I1
sS'slightly'
p5746
I1
sS'hardly'
p5747
I4
sS'wants'
p5748
I8
sS'colors'
p5749
I2
sS'enable'
p5750
I1
sS'shopping'
p5751
I1
sS'supervisor'
p5752
I3
sS'offered'
p5753
I8
sS'blessing'
p5754
I1
sS'commands'
p5755
I1
sS'photos'
p5756
I4
sS'wake'
p5757
I3
sS'covers'
p5758
I2
sS'acquiring'
p5759
I1
sS'careful'
p5760
I8
sS'former'
p5761
I1
sS'those'
p5762
I21
sS'case'
p5763
I19
sS'myself'
p5764
I7
sS'sit'
p5765
I1
sS'mount'
p5766
I1
sS'worried'
p5767
I2
sS'cash'
p5768
I2
sS'trick'
p5769
I2
sS'policies'
p5770
I1
sS'scum'
p5771
I1
sS'situation'
p5772
I5
sS'endured'
p5773
I1
sS'passes'
p5774
I1
sS'ive'
p5775
I48
sS'sincere'
p5776
I1
sS'purse'
p5777
I1
sS'telephone'
p5778
I10
sS'middle'
p5779
I4
sS'good'
p5780
I96
sS'ambient'
p5781
I2
sS'donating'
p5782
I1
sS'return'
p5783
I63
sS'obnoxious'
p5784
I1
sS'technology'
p5785
I2
sS'ship'
p5786
I7
sS'bags'
p5787
I1
sS'different'
p5788
I26
sS'pas'
p5789
I1
sS'verified'
p5790
I5
sS'april'
p5791
I8
sS'pay'
p5792
I29
sS'granted'
p5793
I2
sS'same'
p5794
I56
sS'check'
p5795
I13
sS'gentlemen'
p5796
I1
sS'figuring'
p5797
I1
sS'pad'
p5798
I3
sS'reminder'
p5799
I1
sS'document'
p5800
I2
sS'pal'
p5801
I1
sS'pan'
p5802
I1
sS'tried'
p5803
I42
sS'week'
p5804
I17
sS'finish'
p5805
I1
sS'mockery'
p5806
I1
sS'reverts'
p5807
I1
sS'driver'
p5808
I2
sS'muffled'
p5809
I4
sS'companion'
p5810
I1
sS'persons'
p5811
I1
sS'running'
p5812
I12
sS'wired'
p5813
I3
sS'advertisement'
p5814
I4
sS'hsdpa'
p5815
I9
sS'totally'
p5816
I12
sS'six'
p5817
I4
sS'mentally'
p5818
I1
sS'drain'
p5819
I2
sS'modes'
p5820
I1
sS'charges'
p5821
I6
sS'charger'
p5822
I26
sS'random'
p5823
I7
sS'floor'
p5824
I1
sS'roughly'
p5825
I1
sS'severe'
p5826
I1
sS'costs'
p5827
I3
sS'solve'
p5828
I4
sS'relief'
p5829
I1
sS'relied'
p5830
I1
sS'inability'
p5831
I1
sS'model'
p5832
I25
sS'reward'
p5833
I2
sS'charged'
p5834
I17
sS'morons'
p5835
I1
sS'vent'
p5836
I1
sS'being'
p5837
I36
sS'nd'
p5838
I3
sS'actions'
p5839
I1
sS'shouts'
p5840
I1
sS'reputable'
p5841
I2
sS'tare'
p5842
I2
sS'touch'
p5843
I22
sS'polish'
p5844
I1
sS'plugged'
p5845
I2
sS'speed'
p5846
I2
sS'incurring'
p5847
I1
sS'halfway'
p5848
I1
sS'alphabetical'
p5849
I1
sS'death'
p5850
I8
sS'secondly'
p5851
I1
sS'legitimately'
p5852
I1
sS'application'
p5853
I7
sS'thinking'
p5854
I5
sS'conclude'
p5855
I1
sS'seems'
p5856
I22
sS'except'
p5857
I12
sS'desktop'
p5858
I2
sS'lets'
p5859
I4
sS'setting'
p5860
I10
sS'surprise'
p5861
I9
sS'prominently'
p5862
I1
sS'electrical'
p5863
I1
sS'flashing'
p5864
I2
sS'instructions'
p5865
I8
sS'pill'
p5866
I1
sS'real'
p5867
I9
sS'hover'
p5868
I1
sS'aspects'
p5869
I1
sS'around'
p5870
I14
sS'read'
p5871
I23
sS'mop'
p5872
I1
sS'lowing'
p5873
I1
sS'gonna'
p5874
I4
sS'pos'
p5875
I2
sS'dark'
p5876
I3
sS'test'
p5877
I2
sS'burned'
p5878
I1
sS'darn'
p5879
I1
sS'detract'
p5880
I1
sS'using'
p5881
I39
sS'glitches'
p5882
I4
sS'disappointed'
p5883
I46
sS'outlet'
p5884
I1
sS'mod'
p5885
I1
sS'vend'
p5886
I1
sS'reduces'
p5887
I1
sS'buddies'
p5888
I1
sS'pole'
p5889
I1
sS'serves'
p5890
I3
sS'server'
p5891
I1
sS'shutter'
p5892
I1
sS'benefit'
p5893
I1
sS'blackberry'
p5894
I6
sS'robbery'
p5895
I1
sS'fully'
p5896
I8
sS'served'
p5897
I1
sS'tower'
p5898
I2
sS'reduced'
p5899
I1
sS'accidentally'
p5900
I2
sS'specifies'
p5901
I4
sS'satisfactory'
p5902
I1
sS'scamming'
p5903
I1
sS'joking'
p5904
I1
sS'exposed'
p5905
I2
sS'moving'
p5906
I1
sS'calling'
p5907
I23
sS'manufacturers'
p5908
I1
sS'specified'
p5909
I2
sS'images'
p5910
I2
sS'endeavor'
p5911
I1
sS'bless'
p5912
I1
sS'caribbean'
p5913
I3
sS'unlocked'
p5914
I51
sS'stops'
p5915
I4
sS'exit'
p5916
I1
sS'provides'
p5917
I1
sS'provider'
p5918
I17
sS'refundable'
p5919
I1
sS'generally'
p5920
I2
sS'content'
p5921
I3
sS'refer'
p5922
I2
sS'unsuccessfully'
p5923
I1
sS'turkey'
p5924
I1
sS'accessing'
p5925
I1
sS'assembly'
p5926
I1
sS'power'
p5927
I19
sS'asap'
p5928
I2
sS'seconds'
p5929
I7
sS'manufactured'
p5930
I6
sS'unopened'
p5931
I1
sS'polite'
p5932
I3
sS'broken'
p5933
I15
sS'roaming'
p5934
I2
sS'throw'
p5935
I2
sS'manufacturer'
p5936
I5
sS'lens'
p5937
I1
sS'ok'
p5938
I19
sS'ace'
p5939
I1
sS'oh'
p5940
I8
sS'industry'
p5941
I1
sS'favorite'
p5942
I3
sS'tumor'
p5943
I1
sS'firm'
p5944
I1
sS'greatly'
p5945
I1
sS'neighbor'
p5946
I1
sS'youve'
p5947
I3
sS'mixed'
p5948
I2
sS'ou'
p5949
I2
sS'mean'
p5950
I7
sS'backup'
p5951
I3
sS'processor'
p5952
I5
sS'road'
p5953
I2
sS'researching'
p5954
I1
sS'follows'
p5955
I1
sS'communication'
p5956
I3
sS'image'
p5957
I1
sS'youd'
p5958
I1
sS'child'
p5959
I2
sS'escalated'
p5960
I2
sS'mas'
p5961
I1
sS'snooze'
p5962
I1
sS'accounts'
p5963
I3
sS'shock'
p5964
I4
sS'operator'
p5965
I1
sS'nowadays'
p5966
I2
sS'fast'
p5967
I10
sS'log'
p5968
I1
sS'area'
p5969
I6
sS'assumed'
p5970
I2
sS'lol'
p5971
I4
sS'start'
p5972
I15
sS'low'
p5973
I18
sS'lot'
p5974
I26
sS'brazilian'
p5975
I1
sS'hartman'
p5976
I1
sS'complete'
p5977
I10
sS'drains'
p5978
I1
sS'regard'
p5979
I1
sS'survived'
p5980
I1
sS'multitasking'
p5981
I1
sS'unreliable'
p5982
I6
sS'optical'
p5983
I1
sS'trying'
p5984
I28
sS'buying'
p5985
I24
sS'longer'
p5986
I19
sS'abused'
p5987
I1
sS'pull'
p5988
I2
sS'october'
p5989
I2
sS'arranged'
p5990
I1
sS'default'
p5991
I3
sS'anyway'
p5992
I5
sS'tones'
p5993
I2
sS'gibberish'
p5994
I1
sS'pinch'
p5995
I1
sS'agree'
p5996
I2
sS'darker'
p5997
I1
sS'strongly'
p5998
I2
sS'gone'
p5999
I6
sS'ac'
p6000
I6
sS'money'
p6001
I80
sS'ad'
p6002
I9
sS'videos'
p6003
I7
sS'certain'
p6004
I5
sS'describe'
p6005
I1
sS'moved'
p6006
I2
sS'sales'
p6007
I3
sS'general'
p6008
I4
sS'landscape'
p6009
I1
sS'ar'
p6010
I2
sS'daily'
p6011
I3
sS'file'
p6012
I9
sS'logo'
p6013
I1
sS'politics'
p6014
I1
sS'moves'
p6015
I1
sS'film'
p6016
I2
sS'fill'
p6017
I1
sS'again'
p6018
I56
sS'beyond'
p6019
I5
sS'receive'
p6020
I27
sS'antenna'
p6021
I2
sS'idiot'
p6022
I1
sS'deserve'
p6023
I3
sS'storage'
p6024
I26
sS'prism'
p6025
I2
sS'valid'
p6026
I2
sS'someones'
p6027
I1
sS'instantly'
p6028
I1
sS'forcing'
p6029
I2
sS'intention'
p6030
I2
sS'poor'
p6031
I18
sS'requested'
p6032
I5
sS'regardless'
p6033
I1
sS'refunded'
p6034
I2
sS'symbol'
p6035
I1
sS'whistling'
p6036
I1
sS'seriousness'
p6037
I1
sS'important'
p6038
I4
sS'coverage'
p6039
I7
sS'included'
p6040
I2
sS'resell'
p6041
I1
sS'unresponsive'
p6042
I4
sS'shipping'
p6043
I19
sS'calls'
p6044
I53
sS'wife'
p6045
I7
sS'invest'
p6046
I1
sS'wifi'
p6047
I37
sS'unscathed'
p6048
I1
sS'scroll'
p6049
I1
sS'boosters'
p6050
I2
sS'restricted'
p6051
I1
sS'alright'
p6052
I1
sS'foreclosed'
p6053
I1
sS'overseas'
p6054
I4
sS'resolution'
p6055
I3
sS'original'
p6056
I17
sS'bmw'
p6057
I2
sS'outlining'
p6058
I1
sS'forget'
p6059
I9
sS'chinese'
p6060
I9
sS'duplicates'
p6061
I1
sS'sms'
p6062
I2
sS'beware'
p6063
I11
sS'lack'
p6064
I8
sS'dollar'
p6065
I4
sS'seals'
p6066
I1
sS'gt'
p6067
I12
sS'customary'
p6068
I1
sS'faster'
p6069
I3
sS'children'
p6070
I1
sS'carpet'
p6071
I2
sS'shattered'
p6072
I2
sS'ron'
p6073
I2
sS'tv'
p6074
I2
sS'subjected'
p6075
I1
sS'vs'
p6076
I2
sS'ts'
p6077
I1
sS'tl'
p6078
I2
sS'tm'
p6079
I1
sS'th'
p6080
I4
sS'ti'
p6081
I3
sS'garbling'
p6082
I1
sS'ta'
p6083
I4
sS'activities'
p6084
I2
sS'appointment'
p6085
I1
sS'parcel'
p6086
I2
sS'sitting'
p6087
I3
sS'very'
p6088
I122
sS'fantastic'
p6089
I2
sS'fat'
p6090
I1
sS'sons'
p6091
I1
sS'fan'
p6092
I3
sS'decide'
p6093
I4
sS'fall'
p6094
I1
sS'awful'
p6095
I8
sS'sony'
p6096
I7
sS'bubbles'
p6097
I1
sS'manageable'
p6098
I1
sS'condition'
p6099
I8
sS'cable'
p6100
I7
sS'mothers'
p6101
I2
sS'sluggish'
p6102
I1
sS'list'
p6103
I22
sS'dodged'
p6104
I1
sS'large'
p6105
I2
sS'bypassed'
p6106
I1
sS'saudi'
p6107
I1
sS'liars'
p6108
I1
sS'booting'
p6109
I1
sS'small'
p6110
I11
sS'anal'
p6111
I1
sS'gb'
p6112
I32
sS'tel'
p6113
I1
sS'portable'
p6114
I1
sS'ten'
p6115
I5
sS'sync'
p6116
I7
sS'past'
p6117
I6
sS'zero'
p6118
I9
sS'design'
p6119
I8
sS'displays'
p6120
I4
sS'pass'
p6121
I2
sS'further'
p6122
I2
sS'functioning'
p6123
I3
sS'returned'
p6124
I32
sS'dial'
p6125
I12
sS'imported'
p6126
I1
sS'sub'
p6127
I2
sS'consumers'
p6128
I3
sS'witnessed'
p6129
I1
sS'investing'
p6130
I2
sS'deeply'
p6131
I1
sS'section'
p6132
I2
sS'brief'
p6133
I1
sS'version'
p6134
I17
sS'apologized'
p6135
I1
sS'reboots'
p6136
I5
sS'fractional'
p6137
I1
sS'learned'
p6138
I7
sS'method'
p6139
I1
sS'movement'
p6140
I1
sS'edited'
p6141
I2
sS'full'
p6142
I22
sS'mad'
p6143
I5
sS'nam'
p6144
I1
sS'ma'
p6145
I4
sS'unprofessional'
p6146
I1
sS'replaceable'
p6147
I1
sS'simcard'
p6148
I2
sS'answers'
p6149
I2
sS'hours'
p6150
I25
sS'tracks'
p6151
I1
sS'cylindrical'
p6152
I1
sS'operating'
p6153
I8
sS'directions'
p6154
I1
sS'buzzing'
p6155
I1
sS'strong'
p6156
I2
sS'table'
p6157
I3
sS'shops'
p6158
I1
sS'breakable'
p6159
I3
sS'chipped'
p6160
I1
sS'bible'
p6161
I3
sS'colored'
p6162
I1
sS'ahead'
p6163
I6
sS'identifiable'
p6164
I1
sS'razr'
p6165
I3
sS'allows'
p6166
I3
sS'reason'
p6167
I23
sS'experience'
p6168
I21
sS'pics'
p6169
I6
sS'prior'
p6170
I5
sS'amount'
p6171
I10
sS'arent'
p6172
I4
sS'pick'
p6173
I7
sS'action'
p6174
I1
sS'options'
p6175
I14
sS'sticking'
p6176
I1
sS'via'
p6177
I10
sS'shuffle'
p6178
I1
sS'ours'
p6179
I1
sS'thankfully'
p6180
I2
sS'unsatisfactory'
p6181
I2
sS'suddenly'
p6182
I2
sS'requiring'
p6183
I1
sS'transit'
p6184
I2
sS'africa'
p6185
I9
sS'stuffing'
p6186
I1
sS'speakerphone'
p6187
I4
sS'screens'
p6188
I3
sS'texts'
p6189
I2
sS'indoors'
p6190
I1
sS'gigs'
p6191
I2
sS'pdfs'
p6192
I2
sS'darkens'
p6193
I1
sS'letterhead'
p6194
I3
sS'select'
p6195
I13
sS've'
p6196
I1
sS'mb'
p6197
I7
sS'flaws'
p6198
I2
sS'takes'
p6199
I23
sS'wiped'
p6200
I1
sS'etc'
p6201
I13
sS'texting'
p6202
I8
sS'charge'
p6203
I50
sS'comparing'
p6204
I2
sS'taken'
p6205
I9
sS'branded'
p6206
I3
sS'preloaded'
p6207
I2
sS'minor'
p6208
I1
sS'more'
p6209
I83
sS'flat'
p6210
I1
sS'flaw'
p6211
I5
sS'yuck'
p6212
I1
sS'knows'
p6213
I2
sS'engaged'
p6214
I1
sS'company'
p6215
I47
sS'corrected'
p6216
I1
sS'tested'
p6217
I2
sS'flag'
p6218
I1
sS'basically'
p6219
I11
sS'broke'
p6220
I12
sS'known'
p6221
I4
sS'shipper'
p6222
I1
sS'glad'
p6223
I3
sS'hardware'
p6224
I10
sS'none'
p6225
I9
sS'include'
p6226
I4
sS'hour'
p6227
I9
sS'phillip'
p6228
I1
sS'sucks'
p6229
I20
sS'installing'
p6230
I3
sS'sudden'
p6231
I12
sS'del'
p6232
I1
sS'sent'
p6233
I43
sS'learn'
p6234
I4
sS'vacations'
p6235
I1
sS'deb'
p6236
I2
sS'dec'
p6237
I2
sS'history'
p6238
I4
sS'beautiful'
p6239
I5
sS'purchases'
p6240
I5
sS'compare'
p6241
I4
sS'needing'
p6242
I1
sS'scam'
p6243
I7
sS'pushes'
p6244
I2
sS'stated'
p6245
I7
sS'salesmen'
p6246
I2
sS'share'
p6247
I1
sS'accept'
p6248
I6
sS'voided'
p6249
I1
sS'states'
p6250
I3
sS'claimed'
p6251
I2
sS'smartphone'
p6252
I6
sS'numbers'
p6253
I8
sS'purchased'
p6254
I58
sS'sense'
p6255
I2
sS'pone'
p6256
I1
sS'station'
p6257
I1
sS'airplane'
p6258
I2
sS'information'
p6259
I18
sS'needs'
p6260
I10
sS'court'
p6261
I1
sS'goal'
p6262
I1
sS'awkward'
p6263
I1
sS'rather'
p6264
I5
sS'acts'
p6265
I1
sS'pressing'
p6266
I5
sS'renew'
p6267
I1
sS'stayed'
p6268
I4
sS'everyday'
p6269
I1
sS'maps'
p6270
I4
sS'occasionally'
p6271
I1
sS'hopeless'
p6272
I1
sS'blacked'
p6273
I1
sS'sandwich'
p6274
I1
sS'okay'
p6275
I3
sS'intended'
p6276
I4
sS'rude'
p6277
I2
sS'advice'
p6278
I3
sS'minimum'
p6279
I3
sS'par'
p6280
I4
sS'fa'
p6281
I1
sS'fb'
p6282
I4
sS'disable'
p6283
I3
sS'coming'
p6284
I9
sS'shuts'
p6285
I9
sS'horizontal'
p6286
I1
sS'fl'
p6287
I2
sS'response'
p6288
I13
sS'thought'
p6289
I18
sS'refuse'
p6290
I4
sS'short'
p6291
I4
sS'resemble'
p6292
I1
sS'loud'
p6293
I4
sS'register'
p6294
I3
sS'overnight'
p6295
I1
sS'anytime'
p6296
I1
sS'height'
p6297
I2
sS'perhaps'
p6298
I1
sS'ego'
p6299
I1
sS'media'
p6300
I6
sS'putting'
p6301
I3
sS'lasting'
p6302
I1
sS'playing'
p6303
I4
sS'replied'
p6304
I1
sS'ito'
p6305
I1
sS'tallahassee'
p6306
I3
sS'help'
p6307
I42
sS'incessantly'
p6308
I1
sS'stays'
p6309
I2
sS'soon'
p6310
I9
sS'distortion'
p6311
I1
sS'stylus'
p6312
I4
sS'held'
p6313
I4
sS'attitude'
p6314
I1
sS'paper'
p6315
I3
sS'through'
p6316
I37
sS'reconnect'
p6317
I2
sS'replies'
p6318
I1
sS'hell'
p6319
I3
sS'suffer'
p6320
I1
sS'dont'
p6321
I125
sS'messed'
p6322
I1
sS'style'
p6323
I1
sS'pens'
p6324
I1
sS'pcs'
p6325
I1
sS'actually'
p6326
I13
sS'late'
p6327
I3
sS'detected'
p6328
I1
sS'pica'
p6329
I1
sS'systems'
p6330
I1
sS'differed'
p6331
I1
sS'speaker'
p6332
I20
sS'might'
p6333
I12
sS'ally'
p6334
I1
sS'fool'
p6335
I3
sS'evening'
p6336
I1
sS'somebody'
p6337
I1
sS'yo'
p6338
I3
sS'ya'
p6339
I3
sS'propose'
p6340
I1
sS'gadget'
p6341
I1
sS'noticing'
p6342
I1
sS'floating'
p6343
I1
sS'anticipated'
p6344
I1
sS'walls'
p6345
I2
sS'belittle'
p6346
I1
sS'yr'
p6347
I2
sS'sucked'
p6348
I1
sS'easily'
p6349
I5
sS'gets'
p6350
I16
sS'occasions'
p6351
I1
sS'settings'
p6352
I13
sS'loosely'
p6353
I1
sS'refresh'
p6354
I1
sS'payed'
p6355
I2
sS'micro'
p6356
I2
sS'someone'
p6357
I17
sS'habits'
p6358
I4
sS'stopped'
p6359
I34
sS'turns'
p6360
I5
sS'found'
p6361
I22
sS'repeating'
p6362
I1
sS'difficult'
p6363
I7
sS'obligated'
p6364
I1
sS'ports'
p6365
I1
sS'heavy'
p6366
I2
sS'malfunction'
p6367
I2
sS'everyone'
p6368
I3
sS'begged'
p6369
I1
sS'megabytes'
p6370
I1
sS'weight'
p6371
I2
sS'needless'
p6372
I2
sS'house'
p6373
I8
sS'energy'
p6374
I1
sS'hard'
p6375
I26
sS'reduce'
p6376
I1
sS'idea'
p6377
I6
sS'numeric'
p6378
I1
sS'brother'
p6379
I2
sS'oil'
p6380
I1
sS'expect'
p6381
I16
sS'loops'
p6382
I1
sS'advertisers'
p6383
I1
sS'thing'
p6384
I35
sS'insurance'
p6385
I7
sS'britain'
p6386
I1
sS'really'
p6387
I59
sS'try'
p6388
I28
sS'ditch'
p6389
I1
sS'missed'
p6390
I3
sS'wondered'
p6391
I2
sS'solved'
p6392
I1
sS'since'
p6393
I47
sS'temporary'
p6394
I1
sS'research'
p6395
I14
sS'cheated'
p6396
I1
sS'acting'
p6397
I4
sS'hill'
p6398
I1
sS'inquires'
p6399
I1
sS'print'
p6400
I1
sS'issue'
p6401
I24
sS'bye'
p6402
I2
sS'bully'
p6403
I1
sS'pathetic'
p6404
I3
sS'dirt'
p6405
I1
sS'upon'
p6406
I5
sS'friday'
p6407
I2
sS'warrenty'
p6408
I2
sS'guess'
p6409
I13
sS'mms'
p6410
I1
sS'bulls'
p6411
I2
sS'symbian'
p6412
I2
sS'difficulty'
p6413
I2
sS'qualify'
p6414
I1
sS'base'
p6415
I3
sS'members'
p6416
I2
sS'imagine'
p6417
I4
sS'ask'
p6418
I10
sS'dorset'
p6419
I1
sS'beginning'
p6420
I4
sS'generate'
p6421
I1
sS'thrown'
p6422
I1
sS'owners'
p6423
I1
sS'bring'
p6424
I1
sS'launch'
p6425
I1
sS'finland'
p6426
I1
sS'terrible'
p6427
I20
sS'terribly'
p6428
I2
sS'expecting'
p6429
I5
sS'pure'
p6430
I3
sS'chalked'
p6431
I1
sS'cdma'
p6432
I5
sS'devolve'
p6433
I1
sS'assign'
p6434
I1
sS'major'
p6435
I16
sS'rooted'
p6436
I4
sS'slipped'
p6437
I1
sS'feel'
p6438
I12
sS'mistakenly'
p6439
I1
sS'number'
p6440
I36
sS'fancy'
p6441
I1
sS'feet'
p6442
I3
sS'done'
p6443
I7
sS'least'
p6444
I22
sS'craps'
p6445
I1
sS'fees'
p6446
I2
sS'slower'
p6447
I2
sS'miss'
p6448
I5
sS'verifiable'
p6449
I1
sS'razor'
p6450
I1
sS'story'
p6451
I2
sS'leverage'
p6452
I1
sS'leading'
p6453
I2
sS'interact'
p6454
I1
sS'swipe'
p6455
I2
sS'hangs'
p6456
I2
sS'believable'
p6457
I1
sS'paint'
p6458
I2
sS'flimsy'
p6459
I1
sS'assumption'
p6460
I1
sS'storm'
p6461
I1
sS'sigh'
p6462
I1
sS'ton'
p6463
I1
sS'compartment'
p6464
I1
sS'mobiles'
p6465
I6
sS'gps'
p6466
I16
sS'pare'
p6467
I1
sS'selling'
p6468
I9
sS'passed'
p6469
I1
sS'relationship'
p6470
I2
sS'trapped'
p6471
I1
sS'immediate'
p6472
I1
sS'tracking'
p6473
I7
sS'off'
p6474
I98
sS'believe'
p6475
I10
sS'convinced'
p6476
I1
sS'purposefully'
p6477
I2
sS'kind'
p6478
I12
sS'hundred'
p6479
I1
sS'double'
p6480
I1
sS'instruction'
p6481
I1
sS'grey'
p6482
I3
sS'scandinavian'
p6483
I1
sS'recording'
p6484
I5
sS'stu'
p6485
I2
sS'determined'
p6486
I1
sS'familys'
p6487
I1
sS'unbroken'
p6488
I1
sS'wastage'
p6489
I1
sS'headache'
p6490
I7
sS'treated'
p6491
I1
sS'cleaner'
p6492
I1
sS'uncomfortable'
p6493
I1
sS'syncing'
p6494
I1
sS'alongside'
p6495
I1
sS'defect'
p6496
I7
sS'randomly'
p6497
I9
sS'pantech'
p6498
I16
sS'ditched'
p6499
I1
sS'option'
p6500
I9
sS'sell'
p6501
I20
sS'lie'
p6502
I4
sS'pones'
p6503
I1
sS'nights'
p6504
I1
sS'built'
p6505
I4
sS'something'
p6506
I27
sS'trip'
p6507
I1
sS'self'
p6508
I7
sS'client'
p6509
I1
sS'lit'
p6510
I3
sS'dado'
p6511
I1
sS'entirety'
p6512
I1
sS'without'
p6513
I39
sS'useless'
p6514
I14
sS'finding'
p6515
I2
sS'transparent'
p6516
I1
sS'frequently'
p6517
I4
sS'play'
p6518
I11
sS'towards'
p6519
I2
sS'warnings'
p6520
I2
sS'inconvenience'
p6521
I1
sS'reach'
p6522
I6
sS'serviced'
p6523
I3
sS'react'
p6524
I2
sS'virus'
p6525
I1
sS'experiences'
p6526
I1
sS'plan'
p6527
I19
sS'sandra'
p6528
I1
sS'nothing'
p6529
I29
sS'extremely'
p6530
I14
sS'approved'
p6531
I2
sS'achievement'
p6532
I1
sS'kb'
p6533
I2
sS'cause'
p6534
I12
sS'dealers'
p6535
I1
sS'bug'
p6536
I5
sS'sturdy'
p6537
I2
sS'windows'
p6538
I46
sS'clear'
p6539
I12
sS'sometimes'
p6540
I17
sS'cover'
p6541
I5
sS'traditional'
p6542
I1
sS'kr'
p6543
I1
sS'part'
p6544
I11
sS'clean'
p6545
I1
sS'justify'
p6546
I2
sS'microsoft'
p6547
I36
sS'lying'
p6548
I2
sS'fono'
p6549
I1
sS'ugh'
p6550
I2
sS'phenomenon'
p6551
I1
sS'gold'
p6552
I2
sS'restore'
p6553
I2
sS'fone'
p6554
I3
sS'sup'
p6555
I1
sS'se'
p6556
I3
sS'fine'
p6557
I23
sS'networks'
p6558
I5
sS'costing'
p6559
I1
sS'access'
p6560
I21
sS'giant'
p6561
I4
sS'unusable'
p6562
I1
sS'consistently'
p6563
I2
sS'paranoid'
p6564
I1
sS'rampant'
p6565
I1
sS'writes'
p6566
I2
sS'distributed'
p6567
I1
sS'rotten'
p6568
I1
sS'unhappy'
p6569
I5
sS'specializing'
p6570
I1
sS'starters'
p6571
I2
sS'failed'
p6572
I9
sS'betray'
p6573
I1
sS'pretty'
p6574
I19
sS'fume'
p6575
I1
sS'circle'
p6576
I1
sS'accurate'
p6577
I1
sS'warranties'
p6578
I1
sS'touchscreen'
p6579
I1
sS'hit'
p6580
I7
sS'paperweight'
p6581
I1
sS'mercy'
p6582
I1
sS'express'
p6583
I1
sS'cheaper'
p6584
I1
sS'blank'
p6585
I4
sS'inconvenienced'
p6586
I1
sS'grew'
p6587
I1
sS'valuable'
p6588
I1
sS'closely'
p6589
I1
sS'reply'
p6590
I2
sS'combinations'
p6591
I1
sS'during'
p6592
I9
sS'banner'
p6593
I3
sS'emails'
p6594
I5
sS'restart'
p6595
I7
sS'audio'
p6596
I11
sS'enemy'
p6597
I1
sS'resolve'
p6598
I6
sS'showed'
p6599
I4
sS'sources'
p6600
I1
sS'board'
p6601
I8
sS'remove'
p6602
I6
sS'proclaim'
p6603
I8
sS'stored'
p6604
I3
sS'common'
p6605
I3
sS'gotten'
p6606
I3
sS'doubles'
p6607
I1
sS'insane'
p6608
I1
sS'bars'
p6609
I5
sS'set'
p6610
I27
sS'ser'
p6611
I2
sS'dump'
p6612
I1
sS'intelligence'
p6613
I1
sS'unpublished'
p6614
I1
sS'advertised'
p6615
I6
sS'ara'
p6616
I2
sS'individual'
p6617
I1
sS'sec'
p6618
I1
sS'close'
p6619
I3
sS'changeable'
p6620
I1
sS'ark'
p6621
I1
sS'arm'
p6622
I1
sS'repairs'
p6623
I3
sS'evaluation'
p6624
I1
sS'expert'
p6625
I1
sS'visiting'
p6626
I2
sS'pictures'
p6627
I26
sS'wow'
p6628
I4
sS'currently'
p6629
I2
sS'burner'
p6630
I1
sS'crisp'
p6631
I2
sS'won'
p6632
I1
sS'various'
p6633
I1
sS'pc'
p6634
I6
sS'probably'
p6635
I13
sS'hold'
p6636
I11
sS'donate'
p6637
I1
sS'nope'
p6638
I5
sS'supposed'
p6639
I13
sS'knowing'
p6640
I3
sS'solo'
p6641
I2
sS'korea'
p6642
I2
sS'recently'
p6643
I10
sS'creating'
p6644
I1
sS'missing'
p6645
I4
sS'initially'
p6646
I5
sS'compr'
p6647
I2
sS'sold'
p6648
I11
sS'sole'
p6649
I1
sS'fgs'
p6650
I4
sS'blatant'
p6651
I2
sS'interface'
p6652
I5
sS'clueless'
p6653
I3
sS'pissed'
p6654
I1
sS'ads'
p6655
I1
sS'both'
p6656
I22
sS'toward'
p6657
I1
sS'last'
p6658
I25
sS'reverse'
p6659
I1
sS'hesitant'
p6660
I1
sS'redeem'
p6661
I1
sS'barely'
p6662
I6
sS'foreign'
p6663
I1
sS'sensitive'
p6664
I4
sS'connection'
p6665
I10
sS'became'
p6666
I3
sS'megs'
p6667
I1
sS'alot'
p6668
I3
sS'let'
p6669
I19
sS'whole'
p6670
I8
sS'upgraded'
p6671
I2
sS'liked'
p6672
I3
sS'reconsidered'
p6673
I2
sS'expendable'
p6674
I1
sS'rag'
p6675
I1
sS'reasons'
p6676
I3
sS'format'
p6677
I1
sS'whatever'
p6678
I10
sS'coincidence'
p6679
I2
sS'simply'
p6680
I14
sS'likes'
p6681
I3
sS'upgrades'
p6682
I1
sS'throughout'
p6683
I1
sS'expensive'
p6684
I4
sS'ensures'
p6685
I1
sS'cheapest'
p6686
I1
sS'described'
p6687
I3
sS'raise'
p6688
I1
sS'pt'
p6689
I2
sS'pu'
p6690
I3
sS'monthly'
p6691
I1
sS'create'
p6692
I5
sS'dud'
p6693
I1
sS'due'
p6694
I9
sS'verbal'
p6695
I1
sS'hitting'
p6696
I1
sS'wasnt'
p6697
I17
sS'reduction'
p6698
I1
sS'dropping'
p6699
I3
sS'damn'
p6700
I1
sS'maintenance'
p6701
I1
sS'brick'
p6702
I2
sS'po'
p6703
I1
sS'pl'
p6704
I3
sS'pm'
p6705
I1
sS'slips'
p6706
I1
sS'sending'
p6707
I15
sS'fire'
p6708
I1
sS'transferring'
p6709
I2
sS'great'
p6710
I52
sS'gap'
p6711
I1
sS'moment'
p6712
I1
sS'pricey'
p6713
I2
sS'understand'
p6714
I12
sS'representative'
p6715
I4
sS'demand'
p6716
I2
sS'compatable'
p6717
I3
sS'resisted'
p6718
I1
sS'dialing'
p6719
I2
sS'handling'
p6720
I1
sS'politician'
p6721
I1
sS'solid'
p6722
I2
sS'straight'
p6723
I26
sS'bill'
p6724
I2
sS'grainy'
p6725
I1
sS'budget'
p6726
I1
sS'corrode'
p6727
I1
sS'admire'
p6728
I1
sS'producto'
p6729
I2
sS'while'
p6730
I35
sS'replaced'
p6731
I10
sS'pressed'
p6732
I3
sS'behavior'
p6733
I2
sS'error'
p6734
I7
sS'fun'
p6735
I2
sS'guide'
p6736
I3
sS'theres'
p6737
I12
sS'identical'
p6738
I1
sS'shoddy'
p6739
I1
sS'costly'
p6740
I1
sS'hoping'
p6741
I6
sS'cents'
p6742
I1
sS'calculator'
p6743
I2
sS'rip'
p6744
I6
sS'encountered'
p6745
I7
sS'disappointing'
p6746
I5
sS'rim'
p6747
I1
sS'headway'
p6748
I1
sS'beautifully'
p6749
I1
sS'ready'
p6750
I6
sS'rig'
p6751
I1
sS'rid'
p6752
I2
sS'anguish'
p6753
I1
sS'cumbersome'
p6754
I2
sS'hyperbole'
p6755
I1
sS'funny'
p6756
I2
sS'lengthy'
p6757
I1
sS'anymore'
p6758
I14
sS'belong'
p6759
I1
sS'interaction'
p6760
I1
sS'wherein'
p6761
I1
sS'peoples'
p6762
I1
sS'backlight'
p6763
I1
sS'advise'
p6764
I6
sS'dozen'
p6765
I1
sS'daughters'
p6766
I2
sS'higher'
p6767
I3
sS'development'
p6768
I1
sS'literature'
p6769
I1
sS'displeased'
p6770
I1
sS'optic'
p6771
I1
sS'dime'
p6772
I1
sS'keys'
p6773
I6
sS'comprehensive'
p6774
I1
sS'painless'
p6775
I1
sS'yesterday'
p6776
I4
sS'alert'
p6777
I1
sS'husbands'
p6778
I1
sS'dims'
p6779
I1
sS'viewing'
p6780
I1
sS'walmart'
p6781
I2
sS'liquids'
p6782
I1
sS'purpose'
p6783
I1
sS'robust'
p6784
I1
sS'plugs'
p6785
I3
sS'wheres'
p6786
I2
sS'euro'
p6787
I1
sS'lower'
p6788
I2
sS'older'
p6789
I7
sS'poland'
p6790
I2
sS'cheek'
p6791
I1
sS'spent'
p6792
I13
sS'obviously'
p6793
I6
sS'person'
p6794
I14
sS'priced'
p6795
I3
sS'edge'
p6796
I2
sS'savvy'
p6797
I1
sS'entry'
p6798
I4
sS'gsm'
p6799
I8
sS'stating'
p6800
I4
sS'sims'
p6801
I2
sS'things'
p6802
I25
sS'firmware'
p6803
I1
sS'mom'
p6804
I1
sS'competitive'
p6805
I1
sS'press'
p6806
I11
sS'shape'
p6807
I1
sS'questions'
p6808
I6
sS'world'
p6809
I6
sS'vigilant'
p6810
I1
sS'befuddles'
p6811
I1
sS'alignment'
p6812
I1
sS'apple'
p6813
I11
sS'profitable'
p6814
I1
sS'cut'
p6815
I8
sS'tablet'
p6816
I2
sS'hated'
p6817
I1
sS'recognizing'
p6818
I1
sS'shortcut'
p6819
I1
sS'shouting'
p6820
I1
sS'internal'
p6821
I13
sS'parents'
p6822
I3
sS'location'
p6823
I7
sS'input'
p6824
I5
sS'easter'
p6825
I1
sS'remaining'
p6826
I1
sS'surprised'
p6827
I4
sS'niece'
p6828
I4
sS'complaint'
p6829
I4
sS'australia'
p6830
I1
sS'vendor'
p6831
I7
sS'emergency'
p6832
I4
sS'demands'
p6833
I1
sS'big'
p6834
I17
sS'couple'
p6835
I14
sS'unlimited'
p6836
I5
sS'tiring'
p6837
I1
sS'aggravating'
p6838
I1
sS'game'
p6839
I3
sS'motorola'
p6840
I9
sS'damage'
p6841
I6
sS'emergence'
p6842
I1
sS'modifying'
p6843
I1
sS'like'
p6844
I115
sS'knock'
p6845
I3
sS'outright'
p6846
I1
sS'rotate'
p6847
I3
sS'stylist'
p6848
I1
sS'spine'
p6849
I1
sS'admittedly'
p6850
I1
sS'signal'
p6851
I15
sS'toyota'
p6852
I1
sS'ignore'
p6853
I1
sS'communications'
p6854
I2
sS'aggravation'
p6855
I1
sS'continue'
p6856
I3
sS'indication'
p6857
I3
sS'popular'
p6858
I1
sS'stylish'
p6859
I1
sS'foolish'
p6860
I1
sS'love'
p6861
I15
sS'google'
p6862
I24
sS'parade'
p6863
I1
sS'course'
p6864
I8
sS'absolutely'
p6865
I9
sS'arrived'
p6866
I7
sS'bounce'
p6867
I1
sS'ah'
p6868
I2
sS'understood'
p6869
I1
sS'experienced'
p6870
I4
sS'palm'
p6871
I5
sS'pricing'
p6872
I2
sS'instal'
p6873
I1
sS'cd'
p6874
I3
sS'sprint'
p6875
I7
sS'loses'
p6876
I1
sS'resets'
p6877
I2
sS'lars'
p6878
I1
sS'delivered'
p6879
I3
sS'scale'
p6880
I1
sS'contacts'
p6881
I15
sS'affects'
p6882
I3
sS'decision'
p6883
I4
sS'exec'
p6884
I1
sS'pros'
p6885
I7
sS'integration'
p6886
I1
sS'per'
p6887
I7
sS'seller'
p6888
I74
sS'pen'
p6889
I3
sS'connecting'
p6890
I1
sS'bogus'
p6891
I1
sS'ellipsis'
p6892
I1
sS'epic'
p6893
I1
sS'laughing'
p6894
I1
sS'run'
p6895
I10
sS'bc'
p6896
I2
sS'booklet'
p6897
I2
sS'processing'
p6898
I1
sS'costumer'
p6899
I2
sS'bi'
p6900
I1
sS'refused'
p6901
I8
sS'step'
p6902
I2
sS'negatives'
p6903
I1
sS'oem'
p6904
I1
sS'refuses'
p6905
I5
sS'crap'
p6906
I19
sS'usb'
p6907
I14
sS'shine'
p6908
I1
sS'unused'
p6909
I2
sS'changing'
p6910
I2
sS'gifts'
p6911
I1
sS'caja'
p6912
I2
sS'wouldnt'
p6913
I25
sS'netflix'
p6914
I4
sS'ids'
p6915
I1
sS'drama'
p6916
I1
sS'deserves'
p6917
I1
sS'range'
p6918
I7
sS'idk'
p6919
I3
sS'messaging'
p6920
I7
sS'wanna'
p6921
I3
sS'block'
p6922
I5
sS'seeing'
p6923
I4
sS'plenty'
p6924
I2
sS'garbage'
p6925
I7
sS'imitation'
p6926
I1
sS'within'
p6927
I15
sS'retailer'
p6928
I5
sS'services'
p6929
I8
sS'troubleshooting'
p6930
I2
sS'primarily'
p6931
I2
sS'impressed'
p6932
I2
sS'forth'
p6933
I3
sS'infuriating'
p6934
I1
sS'few'
p6935
I36
sS'spending'
p6936
I3
sS'glitters'
p6937
I2
sS'question'
p6938
I4
sS'specifically'
p6939
I3
sS'custom'
p6940
I1
sS'ordered'
p6941
I23
sS'capacitance'
p6942
I1
sS'doubt'
p6943
I3
sS'forward'
p6944
I3
sS'scared'
p6945
I1
sS'opens'
p6946
I2
sS'manufacture'
p6947
I1
sS'elsewhere'
p6948
I2
sS'sds'
p6949
I2
sS'registered'
p6950
I1
sS'specialty'
p6951
I2
sS'hoped'
p6952
I1
sS'properly'
p6953
I16
sS'link'
p6954
I2
sS'repeatedly'
p6955
I3
sS'filed'
p6956
I3
sS'line'
p6957
I10
sS'crapped'
p6958
I1
sS'nutshell'
p6959
I1
sS'flickers'
p6960
I1
sS'info'
p6961
I7
sS'restarted'
p6962
I2
sS'sounds'
p6963
I3
sS'caller'
p6964
I2
sS'ur'
p6965
I4
sS'planet'
p6966
I1
sS'mobile'
p6967
I78
sS'un'
p6968
I1
sS'exploration'
p6969
I1
sS'uk'
p6970
I30
sS'similar'
p6971
I5
sS'called'
p6972
I38
sS'bell'
p6973
I2
sS'natively'
p6974
I1
sS'adults'
p6975
I1
sS'stick'
p6976
I5
sS'raging'
p6977
I1
sS'char'
p6978
I1
sS'single'
p6979
I7
sS'warning'
p6980
I8
sS'chat'
p6981
I3
sS'adapter'
p6982
I3
sS'denying'
p6983
I2
sS'disinformation'
p6984
I1
sS'codes'
p6985
I3
sS'theyll'
p6986
I2
sS'puzzling'
p6987
I1
sS'fixing'
p6988
I3
sS'buck'
p6989
I2
sS'invalid'
p6990
I1
sS'forewarned'
p6991
I1
sS'afford'
p6992
I7
sS'reputation'
p6993
I1
sS'functionality'
p6994
I1
sS'recognition'
p6995
I6
sS'nice'
p6996
I30
sS'users'
p6997
I3
sS'provided'
p6998
I7
sS'problems'
p6999
I39
sS'prepared'
p7000
I3
sS'replace'
p7001
I18
sS'allowing'
p7002
I2
sS'utterly'
p7003
I1
sS'song'
p7004
I6
sS'samsungs'
p7005
I1
sS'sides'
p7006
I1
sS'earphones'
p7007
I2
sS'ago'
p7008
I20
sS'suffers'
p7009
I1
sS'age'
p7010
I5
sS'required'
p7011
I1
sS'resolving'
p7012
I1
sS'walked'
p7013
I2
sS'annoyed'
p7014
I1
sS'urgency'
p7015
I1
sS'failures'
p7016
I1
sS'requires'
p7017
I4
sS'sounded'
p7018
I2
sS'once'
p7019
I19
sS'code'
p7020
I8
sS'gs'
p7021
I2
sS'ashamed'
p7022
I1
sS'guessing'
p7023
I2
sS'scratch'
p7024
I1
sS'existing'
p7025
I5
sS'shortcomings'
p7026
I1
sS'legal'
p7027
I1
sS'query'
p7028
I1
sS'issues'
p7029
I26
sS'seemed'
p7030
I9
sS'compact'
p7031
I1
sS'cheapy'
p7032
I1
sS'slot'
p7033
I9
sS'concerned'
p7034
I1
sS'requesting'
p7035
I2
sS'young'
p7036
I1
sS'send'
p7037
I41
sS'languages'
p7038
I1
sS'citing'
p7039
I1
sS'helps'
p7040
I2
sS'suite'
p7041
I1
sS'dislike'
p7042
I1
sS'fatal'
p7043
I1
sS'friendly'
p7044
I3
sS'resources'
p7045
I1
sS'uploaded'
p7046
I1
sS'customer'
p7047
I77
sS'confirmation'
p7048
I1
sS'tracfone'
p7049
I4
sS'presently'
p7050
I1
sS'torture'
p7051
I1
sS'outside'
p7052
I10
sS'listed'
p7053
I4
sS'mare'
p7054
I1
sS'engineered'
p7055
I1
sS'facebook'
p7056
I5
sS'cellular'
p7057
I8
sS'esn'
p7058
I2
sS'telling'
p7059
I4
sS'continued'
p7060
I1
sS'arrange'
p7061
I3
sS'entire'
p7062
I4
sS'stiff'
p7063
I1
sS'meant'
p7064
I1
sS'button'
p7065
I31
sS'having'
p7066
I24
sS'liza'
p7067
I1
sS'ryan'
p7068
I1
sS'deals'
p7069
I5
sS'min'
p7070
I2
sS'dealt'
p7071
I1
sS'havent'
p7072
I9
sS'deleting'
p7073
I3
sS'noted'
p7074
I4
sS'solutions'
p7075
I2
sS'unsatisfied'
p7076
I3
sS'smaller'
p7077
I3
sS'managed'
p7078
I2
sS'wrestling'
p7079
I1
sS'ripped'
p7080
I3
sS'jump'
p7081
I2
sS'video'
p7082
I16
sS'traveling'
p7083
I3
sS'picked'
p7084
I1
sS'expense'
p7085
I1
sS'download'
p7086
I33
sS'replicated'
p7087
I1
sS'correspond'
p7088
I1
sS'odd'
p7089
I3
sS'makers'
p7090
I1
sS'poke'
p7091
I1
sS'plays'
p7092
I4
sS'unavailable'
p7093
I1
sS'rate'
p7094
I3
sS'giving'
p7095
I9
sS'squeeze'
p7096
I1
sS'find'
p7097
I39
sS'cell'
p7098
I43
sS'paying'
p7099
I2
sS'customization'
p7100
I2
sS'printing'
p7101
I1
sS'infuse'
p7102
I1
sS'led'
p7103
I8
sS'chose'
p7104
I3
sS'elect'
p7105
I1
sS'leg'
p7106
I3
sS'upsetting'
p7107
I1
sS'apologetic'
p7108
I1
sS'pushing'
p7109
I1
sS'mic'
p7110
I3
sS'packing'
p7111
I1
sS'focused'
p7112
I1
sS'others'
p7113
I10
sS'sing'
p7114
I1
sS'irritating'
p7115
I1
sS'extreme'
p7116
I1
sS'convert'
p7117
I1
sS'casing'
p7118
I2
sS'metro'
p7119
I1
sS'technical'
p7120
I6
sS'involved'
p7121
I1
sS'inoperable'
p7122
I1
sS'alaska'
p7123
I1
sS'leaving'
p7124
I7
sS'dice'
p7125
I1
sS'products'
p7126
I16
sS'submerged'
p7127
I1
sS'opinion'
p7128
I2
sS'climb'
p7129
I1
sS'proof'
p7130
I1
sS'makes'
p7131
I15
sS'delays'
p7132
I1
sS'thats'
p7133
I29
sS'faultiness'
p7134
I1
sS'addresses'
p7135
I1
sS'clark'
p7136
I1
sS'claim'
p7137
I14
sS'win'
p7138
I2
sS'app'
p7139
I38
sS'manage'
p7140
I3
sS'private'
p7141
I2
sS'rx'
p7142
I1
sS'ran'
p7143
I2
sS'addressee'
p7144
I1
sS'apn'
p7145
I1
sS'privately'
p7146
I1
sS'frame'
p7147
I1
sS'apply'
p7148
I1
sS'gimmick'
p7149
I1
sS'cloud'
p7150
I2
sS'ape'
p7151
I1
sS'standing'
p7152
I2
sS'fed'
p7153
I2
sS'fee'
p7154
I12
sS'feb'
p7155
I1
sS'che'
p7156
I1
sS'usa'
p7157
I26
sS'remains'
p7158
I2
sS'next'
p7159
I15
sS'amazons'
p7160
I6
sS'camera'
p7161
I46
sS'celphone'
p7162
I2
sS'ines'
p7163
I1
sS'themselves'
p7164
I1
sS'awesome'
p7165
I8
sS'reflects'
p7166
I1
sS'sort'
p7167
I1
sS'popped'
p7168
I1
sS'removable'
p7169
I1
sS'started'
p7170
I24
sS'becomes'
p7171
I2
sS'lounge'
p7172
I2
sS'freezing'
p7173
I5
sS'foolishly'
p7174
I1
sS'guy'
p7175
I3
sS'rubbish'
p7176
I1
sS'invasion'
p7177
I1
sS'antennas'
p7178
I1
sS'gladly'
p7179
I2
sS'promotional'
p7180
I1
sS'iii'
p7181
I8
sS'charity'
p7182
I1
sS'entangle'
p7183
I1
sS'account'
p7184
I23
sS'balls'
p7185
I1
sS'locks'
p7186
I1
sS'tunnel'
p7187
I1
sS'challenge'
p7188
I1
sS'package'
p7189
I9
sS'prompts'
p7190
I1
sS'anywhere'
p7191
I7
sS'stabilizer'
p7192
I1
sS'meet'
p7193
I4
sS'closing'
p7194
I1
sS'unread'
p7195
I1
sS'alit'
p7196
I1
sS'bend'
p7197
I1
sS'control'
p7198
I6
sS'proprietary'
p7199
I1
sS'bent'
p7200
I1
sS'process'
p7201
I8
sS'lock'
p7202
I8
sS'slim'
p7203
I1
sS'tax'
p7204
I1
sS'purposes'
p7205
I1
sS'pieces'
p7206
I1
sS'high'
p7207
I10
sS'tag'
p7208
I1
sS'fulfillment'
p7209
I1
sS'tab'
p7210
I2
sS'wonderful'
p7211
I2
sS'rods'
p7212
I1
sS'tan'
p7213
I2
sS'crucial'
p7214
I1
sS'practical'
p7215
I1
sS'united'
p7216
I2
sS'syndrome'
p7217
I3
sS'falls'
p7218
I2
sS'noises'
p7219
I1
sS'vibe'
p7220
I1
sS'di'
p7221
I2
sS'delay'
p7222
I1
sS'numerous'
p7223
I3
sS'tronic'
p7224
I2
sS'attachment'
p7225
I2
sS'responsibility'
p7226
I4
sS'slamming'
p7227
I1
sS'instead'
p7228
I11
sS'grudgingly'
p7229
I1
sS'sin'
p7230
I1
sS'sim'
p7231
I82
sS'stand'
p7232
I4
sS'profile'
p7233
I1
sS'watch'
p7234
I5
sS'indicating'
p7235
I1
sS'abuse'
p7236
I5
sS'fits'
p7237
I1
sS'ties'
p7238
I1
sS'elul'
p7239
I1
sS'tmobiles'
p7240
I1
sS'engineering'
p7241
I1
sS'redeeming'
p7242
I1
sS'geek'
p7243
I4
sS'realized'
p7244
I3
sS'issued'
p7245
I2
sS'defective'
p7246
I18
sS'os'
p7247
I16
sS'bing'
p7248
I2
sS'lame'
p7249
I1
sS'lines'
p7250
I2
sS'amazon'
p7251
I96
sS'redundant'
p7252
I1
sS'honestly'
p7253
I2
sS'allow'
p7254
I11
sS'furious'
p7255
I1
sS'looking'
p7256
I16
sS'counted'
p7257
I1
sS'erasing'
p7258
I1
sS'fallowed'
p7259
I1
sS'holds'
p7260
I2
sS'piece'
p7261
I31
sS'wit'
p7262
I1
sS'despite'
p7263
I4
sS'doubtful'
p7264
I1
sS'symbols'
p7265
I1
sS'including'
p7266
I2
sS'looks'
p7267
I15
sS'er'
p7268
I15
sS'mentioned'
p7269
I1
sS'galaxy'
p7270
I37
sS'bunch'
p7271
I4
sS'perfect'
p7272
I13
sS'underwater'
p7273
I1
sS'le'
p7274
I7
sS'disregarded'
p7275
I1
sS'inlet'
p7276
I1
sS'la'
p7277
I5
sS'lo'
p7278
I5
sS'rectify'
p7279
I1
sS'li'
p7280
I1
sS'lt'
p7281
I1
sS'lu'
p7282
I1
sS'horror'
p7283
I1
sS'choose'
p7284
I3
sS'orange'
p7285
I4
sS'covered'
p7286
I4
sS'holiday'
p7287
I2
sS'spreading'
p7288
I1
sS'dad'
p7289
I2
sS'rectification'
p7290
I1
sS'crash'
p7291
I1
sS'greater'
p7292
I1
sS'blackberries'
p7293
I1
sS'docs'
p7294
I2
sS'dan'
p7295
I1
sS'spell'
p7296
I1
sS'mediocre'
p7297
I1
sS'mention'
p7298
I6
sS'cutting'
p7299
I2
sS'bothering'
p7300
I1
sS'hands'
p7301
I5
sS'trade'
p7302
I3
sS'rotation'
p7303
I1
sS'headphone'
p7304
I6
sS'handy'
p7305
I1
sS'tmobile'
p7306
I13
sS'february'
p7307
I1
sS'edit'
p7308
I2
sS'warned'
p7309
I4
sS'slide'
p7310
I1
sS'weather'
p7311
I2
sS'fiddle'
p7312
I1
sS'mode'
p7313
I20
sS'truth'
p7314
I1
sS'crossing'
p7315
I1
sS'stock'
p7316
I8
sS'tray'
p7317
I1
sS'erratic'
p7318
I1
sS'ratings'
p7319
I1
sS'activate'
p7320
I15
sS'attachments'
p7321
I1
sS'bentley'
p7322
I1
sS'doing'
p7323
I6
sS'programmed'
p7324
I3
sS'product'
p7325
I67
sS'related'
p7326
I3
sS'bluetooth'
p7327
I8
sS'aggravated'
p7328
I1
sS'society'
p7329
I1
sS'junkie'
p7330
I1
sS'frequency'
p7331
I1
sS'static'
p7332
I2
sS'bay'
p7333
I1
sS'almacenamiento'
p7334
I2
sS'effortless'
p7335
I1
sS'popping'
p7336
I1
sS'respects'
p7337
I1
sS'bag'
p7338
I1
sS'spectrum'
p7339
I1
sS'rep'
p7340
I7
sS'develop'
p7341
I1
sS'relate'
p7342
I1
sS'reboot'
p7343
I4
sS'soundly'
p7344
I1
sS'performs'
p7345
I1
sS'max'
p7346
I3
sS'electronics'
p7347
I4
sS'supports'
p7348
I2
sS'integrated'
p7349
I1
sS'red'
p7350
I7
sS'disclose'
p7351
I1
sS'shut'
p7352
I10
sS'ems'
p7353
I1
sS'dictionary'
p7354
I3
sS'unwieldy'
p7355
I1
sS'recommendations'
p7356
I1
sS'approaches'
p7357
I1
sS'ect'
p7358
I1
sS'surely'
p7359
I1
sS'york'
p7360
I1
sS'usual'
p7361
I2
sS'business'
p7362
I7
sS'afterward'
p7363
I1
sS'forwarded'
p7364
I1
sS'repairing'
p7365
I1
sS'lemon'
p7366
I2
sS'backwards'
p7367
I3
sS'steal'
p7368
I1
sS'route'
p7369
I1
sS'hes'
p7370
I1
sS'put'
p7371
I30
sS'timer'
p7372
I1
sS'keep'
p7373
I23
sS'conversation'
p7374
I4
sS'lte'
p7375
I2
sS'removing'
p7376
I3
sS'retail'
p7377
I2
sS'south'
p7378
I7
sS'unclaimed'
p7379
I1
sS'bulky'
p7380
I1
sS'soldered'
p7381
I2
sS'scene'
p7382
I1
sS'owned'
p7383
I4
sS'jesus'
p7384
I1
sS'embarrassed'
p7385
I1
sS'submit'
p7386
I1
sS'lagging'
p7387
I1
sS'owner'
p7388
I2
sS'reached'
p7389
I3
sS'noticed'
p7390
I6
sS'quality'
p7391
I34
sS'reliable'
p7392
I3
sS'owning'
p7393
I3
sS'miserably'
p7394
I1
sS'bull'
p7395
I2
sS'sadly'
p7396
I3
sS'reference'
p7397
I1
sS'privacy'
p7398
I3
sS'ordering'
p7399
I7
sS'unknown'
p7400
I1
sS'assure'
p7401
I2
sS'system'
p7402
I18
sS'relations'
p7403
I1
sS'ruin'
p7404
I1
sS'developer'
p7405
I1
sS'perfectly'
p7406
I2
sS'final'
p7407
I2
sS'sealed'
p7408
I1
sS'unceasing'
p7409
I1
sS'ambiguous'
p7410
I1
sS'reversed'
p7411
I1
sS'acquire'
p7412
I3
sS'intentional'
p7413
I1
sS'lists'
p7414
I1
sS'slider'
p7415
I1
sS'july'
p7416
I4
sS'updating'
p7417
I1
sS'waist'
p7418
I2
sS'recieve'
p7419
I1
sS'bid'
p7420
I1
sS'boring'
p7421
I2
sS'bother'
p7422
I4
sS'youtube'
p7423
I7
sS'bed'
p7424
I1
sS'limiting'
p7425
I1
sS'moto'
p7426
I1
sS'loves'
p7427
I1
sS'light'
p7428
I12
sS'ber'
p7429
I2
sS'dumb'
p7430
I1
sS'providing'
p7431
I1
sS'distinguished'
p7432
I1
sS'bet'
p7433
I1
sS'drunk'
p7434
I1
sS'false'
p7435
I7
sS'viewer'
p7436
I1
sS'jerk'
p7437
I1
sS'gently'
p7438
I1
sS'comfortable'
p7439
I1
sS'horrors'
p7440
I1
sS'gentle'
p7441
I1
sS'sen'
p7442
I2
sS'need'
p7443
I36
sS'facing'
p7444
I2
sS'apparently'
p7445
I18
sS'linked'
p7446
I2
sS'viewed'
p7447
I2
sS'prohibits'
p7448
I1
sS'microphone'
p7449
I3
sS'afraid'
p7450
I1
sS'angle'
p7451
I1
sS'dallas'
p7452
I1
sS'bough'
p7453
I1
sS'able'
p7454
I27
sS'si'
p7455
I3
sS'purchasing'
p7456
I12
sS'contact'
p7457
I28
sS'mix'
p7458
I2
sS'issuing'
p7459
I1
sS'illumishield'
p7460
I1
sS'subject'
p7461
I2
sS'soap'
p7462
I1
sS'progressively'
p7463
I2
sS'worldwide'
p7464
I5
sS'buggy'
p7465
I5
sS'unless'
p7466
I22
sS'connected'
p7467
I2
sS'cracking'
p7468
I1
sS'device'
p7469
I41
sS'expired'
p7470
I2
sS'payment'
p7471
I4
sS'cellphone'
p7472
I7
sS'barebones'
p7473
I2
sS'nobody'
p7474
I5
sS'stronger'
p7475
I1
sS'breeze'
p7476
I13
sS'crediting'
p7477
I1
sS'callers'
p7478
I3
sS'absurd'
p7479
I1
sS'movie'
p7480
I1
sS'normally'
p7481
I3
sS'fact'
p7482
I9
sS'selection'
p7483
I6
sS'please'
p7484
I18
sS'agreed'
p7485
I1
sS'supported'
p7486
I3
sS'spanking'
p7487
I1
sS'connect'
p7488
I21
sS'destroy'
p7489
I1
sS'planning'
p7490
I3
sS'tryed'
p7491
I3
sS'utter'
p7492
I2
sS'fear'
p7493
I1
sS'trivial'
p7494
I1
sS'pleased'
p7495
I2
sS'decade'
p7496
I1
sS'staff'
p7497
I1
sS'pause'
p7498
I3
sS'based'
p7499
I4
sS'knowledge'
p7500
I1
sS'barnyard'
p7501
I1
sS'hopeful'
p7502
I1
sS'controls'
p7503
I1
sS'should'
p7504
I44
sS'buttons'
p7505
I23
sS'loved'
p7506
I9
sS'score'
p7507
I1
sS'suckered'
p7508
I1
sS'unconcerned'
p7509
I1
sS'local'
p7510
I8
sS'interested'
p7511
I2
sS'inferior'
p7512
I2
sS'finger'
p7513
I2
sS'regularly'
p7514
I2
sS'hassles'
p7515
I2
sS'move'
p7516
I5
sS'handle'
p7517
I4
sS'watching'
p7518
I3
sS'beat'
p7519
I1
sS'displayed'
p7520
I1
sS'whatnot'
p7521
I1
sS'simplest'
p7522
I1
sS'overall'
p7523
I8
sS'lucky'
p7524
I2
sS'fraud'
p7525
I1
sS'stars'
p7526
I11
sS'words'
p7527
I7
sS'werent'
p7528
I2
sS'timing'
p7529
I1
sS'years'
p7530
I19
sS'procedures'
p7531
I1
sS'rite'
p7532
I2
sS'areas'
p7533
I1
sS'gray'
p7534
I2
sS'awkwardness'
p7535
I1
sS'brain'
p7536
I1
sS'conditions'
p7537
I1
sS'fixes'
p7538
I3
sS'tuned'
p7539
I1
sS'stuff'
p7540
I5
sS'cr'
p7541
I2
sS'processed'
p7542
I1
sS'tunes'
p7543
I1
sS'comma'
p7544
I1
sS'piss'
p7545
I1
sS'view'
p7546
I5
sS'conform'
p7547
I1
sS'btw'
p7548
I2
sS'exists'
p7549
I3
sS'configured'
p7550
I1
sS'cuts'
p7551
I1
sS'recommending'
p7552
I1
sS'stud'
p7553
I1
sS'freeze'
p7554
I5
sS'computer'
p7555
I5
sS'solder'
p7556
I1
sS'packed'
p7557
I2
sS'responses'
p7558
I1
sS'attempting'
p7559
I1
sS'pattern'
p7560
I2
sS'nightmare'
p7561
I5
sS'tend'
p7562
I1
sS'favor'
p7563
I4
sS'written'
p7564
I2
sS'difficulties'
p7565
I1
sS'boosts'
p7566
I1
sS'correctly'
p7567
I7
sS'horrible'
p7568
I18
sS'progress'
p7569
I1
sS'neither'
p7570
I2
sS'youll'
p7571
I10
sS'email'
p7572
I28
sS'supers'
p7573
I1
sS'bought'
p7574
I88
sS'ends'
p7575
I2
sS'ability'
p7576
I2
sS'opening'
p7577
I1
sS'weak'
p7578
I4
sS'deliver'
p7579
I1
sS'hogging'
p7580
I1
sS'job'
p7581
I6
sS'lost'
p7582
I15
sS'key'
p7583
I8
sS'synced'
p7584
I1
sS'police'
p7585
I1
sS'configuration'
p7586
I3
sS'legit'
p7587
I3
sS'monitor'
p7588
I1
sS'restrictions'
p7589
I1
sS'hits'
p7590
I1
sS'figured'
p7591
I1
sS'instant'
p7592
I1
sS'buster'
p7593
I1
sS'limits'
p7594
I1
sS'always'
p7595
I16
sS'joke'
p7596
I5
sS'taking'
p7597
I11
sS'shipment'
p7598
I2
sS'fulfilled'
p7599
I1
sS'innocently'
p7600
I1
sS'admit'
p7601
I2
sS'eta'
p7602
I1
sS'figures'
p7603
I1
sS'swallow'
p7604
I1
sS'otherwise'
p7605
I3
sS'comment'
p7606
I2
sS'detailed'
p7607
I2
sS'ci'
p7608
I9
sS'co'
p7609
I2
sS'author'
p7610
I1
sS'capabilities'
p7611
I2
sS'toilet'
p7612
I1
sS'wall'
p7613
I4
sS'ca'
p7614
I5
sS'cf'
p7615
I2
sS'walk'
p7616
I5
sS'packaging'
p7617
I5
sS'competent'
p7618
I1
sS'laugh'
p7619
I1
sS'cs'
p7620
I3
sS'respect'
p7621
I1
sS'cu'
p7622
I1
sS'quit'
p7623
I1
sS'protective'
p7624
I1
sS'keying'
p7625
I1
sS'powered'
p7626
I2
sS'addition'
p7627
I2
sS'decent'
p7628
I11
sS'bugs'
p7629
I8
sS'bricked'
p7630
I1
sS'holidays'
p7631
I1
sS'bbb'
p7632
I3
sS'cent'
p7633
I2
sS'shame'
p7634
I8
sS'willing'
p7635
I3
sS'slowly'
p7636
I2
sS'treat'
p7637
I1
sS'erases'
p7638
I1
sS'freak'
p7639
I1
sS'waste'
p7640
I26
sS'universal'
p7641
I1
sS'partial'
p7642
I1
sS'penny'
p7643
I1
sS'bit'
p7644
I5
sS'verizon'
p7645
I52
sS'ray'
p7646
I1
sS'crappy'
p7647
I4
sS'finished'
p7648
I2
sS'ice'
p7649
I1
sS'angles'
p7650
I1
sS'remedied'
p7651
I1
sS'kicks'
p7652
I1
sS'gross'
p7653
I1
sS'garmin'
p7654
I1
sS'present'
p7655
I2
sS'volunteer'
p7656
I1
sS'divisions'
p7657
I1
sS'smartphones'
p7658
I3
sS'laser'
p7659
I1
sS'external'
p7660
I3
sS'plain'
p7661
I1
sS'means'
p7662
I11
sS'appearance'
p7663
I2
sS'examine'
p7664
I1
sS'value'
p7665
I2
sS'pixel'
p7666
I1
sS'reliability'
p7667
I3
sS'expiration'
p7668
I1
sS'fault'
p7669
I7
sS'promoted'
p7670
I1
sS'deductible'
p7671
I1
sS'frustrating'
p7672
I5
sS'beeps'
p7673
I1
sS'va'
p7674
I1
sS'dent'
p7675
I1
sS'outlined'
p7676
I1
sS'satisfying'
p7677
I1
sS'ripe'
p7678
I1
sS'manually'
p7679
I2
sS'almost'
p7680
I23
sS'av'
p7681
I1
sS'thus'
p7682
I2
sS'site'
p7683
I6
sS'helped'
p7684
I1
sS'inform'
p7685
I1
sS'optimistic'
p7686
I1
sS'dual'
p7687
I8
sS'watched'
p7688
I2
sS'arabia'
p7689
I1
sS'bucks'
p7690
I5
sS'sits'
p7691
I1
sS'miracle'
p7692
I1
sS'terrorist'
p7693
I1
sS'productivity'
p7694
I1
sS'steer'
p7695
I1
sS'shiny'
p7696
I1
sS'generic'
p7697
I7
sS'juan'
p7698
I1
sS'parts'
p7699
I4
sS'slammed'
p7700
I1
sS'auto'
p7701
I4
sS'units'
p7702
I1
sS'party'
p7703
I8
sS'android'
p7704
I38
sS'cream'
p7705
I1
sS'nada'
p7706
I2
sS'planned'
p7707
I3
sS'cellphones'
p7708
I2
sS'nokia'
p7709
I62
sS'cog'
p7710
I1
sS'dusk'
p7711
I1
sS'pharos'
p7712
I4
sS'drink'
p7713
I1
sS'ios'
p7714
I3
sS'effect'
p7715
I4
sS'censoring'
p7716
I1
sS'ion'
p7717
I1
sS'robotic'
p7718
I1
sS'build'
p7719
I4
sS'garb'
p7720
I1
sS'transaction'
p7721
I2
sS'recourse'
p7722
I1
sS'center'
p7723
I11
sS'approve'
p7724
I1
sS'colour'
p7725
I2
sS'contest'
p7726
I1
sS'arrival'
p7727
I1
sS'rife'
p7728
I1
sS'command'
p7729
I2
sS'oft'
p7730
I1
sS'english'
p7731
I5
sS'firstly'
p7732
I1
sS'position'
p7733
I1
sS'fail'
p7734
I3
sS'breaker'
p7735
I6
sS'snake'
p7736
I1
sS'rocker'
p7737
I1
sS'load'
p7738
I9
sS'underdog'
p7739
I1
sS'less'
p7740
I28
sS'incapable'
p7741
I1
sS'proximity'
p7742
I2
sS'obtain'
p7743
I1
sS'front'
p7744
I16
sS'batteries'
p7745
I2
sS'mistakes'
p7746
I1
sS'downfalls'
p7747
I1
sS'tough'
p7748
I2
sS'rest'
p7749
I3
sS'web'
p7750
I8
sS'rapid'
p7751
I2
sS'nextel'
p7752
I2
sS'podcast'
p7753
I1
sS'point'
p7754
I6
sS'microsd'
p7755
I1
sS'discuss'
p7756
I1
sS'simple'
p7757
I10
sS'add'
p7758
I9
sS'wep'
p7759
I2
sS'attractive'
p7760
I1
sS'wet'
p7761
I2
sS'usage'
p7762
I7
sS'ado'
p7763
I3
sS'matched'
p7764
I1
sS'warrant'
p7765
I1
sS'smart'
p7766
I14
sS'details'
p7767
I1
sS'resolved'
p7768
I1
sS'advertising'
p7769
I2
sS'moble'
p7770
I3
sS'checking'
p7771
I1
sS'transmitter'
p7772
I1
sS'recharging'
p7773
I1
sS'five'
p7774
I5
sS'know'
p7775
I66
sS'desk'
p7776
I2
sS'imei'
p7777
I4
sS'immediately'
p7778
I10
sS'condescending'
p7779
I1
sS'toe'
p7780
I1
sS'insert'
p7781
I3
sS'trash'
p7782
I4
sS'necessary'
p7783
I1
sS'helpful'
p7784
I6
sS'success'
p7785
I1
sS'politely'
p7786
I1
sS'ring'
p7787
I13
sS'ostia'
p7788
I3
sS'dept'
p7789
I1
sS'verifying'
p7790
I1
sS'sissy'
p7791
I1
sS'payments'
p7792
I1
sS'flickering'
p7793
I1
sS'lose'
p7794
I3
sS'become'
p7795
I2
sS'works'
p7796
I34
sS'soft'
p7797
I4
sS'page'
p7798
I4
sS'replacement'
p7799
I36
sS'jan'
p7800
I6
sS'twitter'
p7801
I1
sS'searching'
p7802
I3
sS'hair'
p7803
I1
sS'convey'
p7804
I1
sS'home'
p7805
I12
sS'liking'
p7806
I1
sS'march'
p7807
I4
sS'happens'
p7808
I3
sS'overlay'
p7809
I1
sS'literally'
p7810
I9
sS'avoid'
p7811
I6
sS'worthless'
p7812
I3
sS'slipping'
p7813
I1
sS'disk'
p7814
I1
sS'does'
p7815
I91
sS'discretion'
p7816
I1
sS'economical'
p7817
I1
sS'assuming'
p7818
I1
sS'screwed'
p7819
I3
sS'capability'
p7820
I3
sS'iphones'
p7821
I3
sS'blurry'
p7822
I3
sS'locate'
p7823
I2
sS'says'
p7824
I20
sS'hose'
p7825
I1
sS'inaccurate'
p7826
I1
sS'mouth'
p7827
I1
sS'selecting'
p7828
I2
sS'consuming'
p7829
I2
sS'np'
p7830
I1
sS'dented'
p7831
I1
sS'although'
p7832
I7
sS'worthy'
p7833
I2
sS'paste'
p7834
I1
sS'periodically'
p7835
I1
sS'expandable'
p7836
I2
sS'plastic'
p7837
I6
sS'sister'
p7838
I6
sS'directed'
p7839
I2
sS'actual'
p7840
I5
sS'billing'
p7841
I1
sS'extension'
p7842
I2
sS'face'
p7843
I7
sS'spilled'
p7844
I1
sS'recognized'
p7845
I1
sS'surge'
p7846
I2
sS'compatible'
p7847
I8
sS'carries'
p7848
I2
sS'swear'
p7849
I2
sS'places'
p7850
I1
sS'recognizes'
p7851
I1
sS'introduced'
p7852
I1
sS'software'
p7853
I29
sS'warranty'
p7854
I43
sS'em'
p7855
I3
sS'equally'
p7856
I1
sS'own'
p7857
I22
sS'polished'
p7858
I1
sS'kinda'
p7859
I3
sS'el'
p7860
I3
sS'previously'
p7861
I2
sS'warrants'
p7862
I1
sS'functional'
p7863
I2
sS'getting'
p7864
I35
sS'brands'
p7865
I1
sS'square'
p7866
I1
sS'promise'
p7867
I1
sS'tiny'
p7868
I3
sS'theyd'
p7869
I1
sS'couldnt'
p7870
I32
sS'uninstalls'
p7871
I1
sS'mere'
p7872
I2
sS'restarts'
p7873
I1
sS'postal'
p7874
I2
sS'additional'
p7875
I1
sS'whom'
p7876
I2
sS'transfer'
p7877
I4
sS'lagged'
p7878
I1
sS'apps'
p7879
I88
sS'protectors'
p7880
I2
sS'continental'
p7881
I1
sS'spread'
p7882
I1
sS'pa'
p7883
I1
sS'frustration'
p7884
I5
sS'avail'
p7885
I1
sS'biggest'
p7886
I3
sS'detrimental'
p7887
I1
sS'yrs'
p7888
I1
sS'vat'
p7889
I1
sS'function'
p7890
I7
sS'buy'
p7891
I110
sS'chatting'
p7892
I1
sS'hr'
p7893
I1
sS'hp'
p7894
I2
sS'hq'
p7895
I4
sS'fulfill'
p7896
I1
sS'blaming'
p7897
I1
sS'delivery'
p7898
I2
sS'hi'
p7899
I2
sS'mailed'
p7900
I1
sS'larger'
p7901
I1
sS'didnt'
p7902
I67
sS'editing'
p7903
I1
sS'hg'
p7904
I1
sS'hd'
p7905
I2
sS'made'
p7906
I28
sS'partitioned'
p7907
I1
sS'glory'
p7908
I1
sS'whether'
p7909
I4
sS'wish'
p7910
I13
sS'smooth'
p7911
I2
sS'flip'
p7912
I6
sS'signed'
p7913
I1
sS'instructing'
p7914
I1
sS'record'
p7915
I8
sS'below'
p7916
I5
sS'books'
p7917
I1
sS'limit'
p7918
I1
sS'empty'
p7919
I1
sS'problem'
p7920
I71
sS'walter'
p7921
I1
sS'minutes'
p7922
I22
sS'display'
p7923
I4
sS'chip'
p7924
I6
sS'averaged'
p7925
I1
sS'dots'
p7926
I1
sS'replying'
p7927
I1
sS'pin'
p7928
I4
sS'recognize'
p7929
I6
sS'handset'
p7930
I1
sS'pic'
p7931
I2
sS'pig'
p7932
I1
sS'replica'
p7933
I1
sS'websites'
p7934
I3
sS'shooting'
p7935
I1
sS'eric'
p7936
I1
sS'worse'
p7937
I27
sS'inc'
p7938
I1
sS'diego'
p7939
I1
sS'functions'
p7940
I7
sS'compared'
p7941
I4
sS'incompatible'
p7942
I1
sS'calibration'
p7943
I1
sS'trials'
p7944
I1
sS'boot'
p7945
I3
sS'detail'
p7946
I1
sS'lately'
p7947
I1
sS'book'
p7948
I3
sS'wipes'
p7949
I1
sS'branch'
p7950
I1
sS'incredibly'
p7951
I1
sS'contacting'
p7952
I2
sS'guys'
p7953
I3
sS'junk'
p7954
I16
sS'repeat'
p7955
I2
sS'kinds'
p7956
I1
sS'juno'
p7957
I1
sS'consisted'
p7958
I1
sS'ears'
p7959
I1
sS'prying'
p7960
I1
sS'june'
p7961
I2
sS'outlets'
p7962
I1
sS'stay'
p7963
I8
sS'chance'
p7964
I5
sS'additionally'
p7965
I1
sS'else'
p7966
I20
sS'friends'
p7967
I4
sS'serial'
p7968
I1
sS'kidding'
p7969
I1
sS'yelp'
p7970
I1
sS'samsung'
p7971
I124
sS'starting'
p7972
I3
sS'choices'
p7973
I2
sS'lasted'
p7974
I6
sS'extras'
p7975
I1
sS'status'
p7976
I2
sS'specced'
p7977
I1
sS'att'
p7978
I13
stp7979
Rp7980
sS'total_lines'
p7981
I1000
sb.