(imodel2
NaiveBayesClassifier
p0
(dp1
S'neg_bigram_corpus_length'
p2
I1169
sS'unigram_vocab_length'
p3
I3401
sS'neg_unigram_corpus_length'
p4
I23382
sS'negative_unigram_count'
p5
ccollections
Counter
p6
((dp7
S'limited'
p8
I7
sS'augustine'
p9
I2
sS'similarity'
p10
I2
sS'saver'
p11
I2
sS'saves'
p12
I1
sS'yellow'
p13
I4
sS'sleek'
p14
I1
sS'four'
p15
I5
sS'hanging'
p16
I3
sS'saved'
p17
I3
sS'consider'
p18
I8
sS'looking'
p19
I16
sS'glitters'
p20
I2
sS'swap'
p21
I1
sS'whatsoever'
p22
I2
sS'under'
p23
I23
sS'sorry'
p24
I9
sS'worth'
p25
I22
sS'merchant'
p26
I2
sS'updated'
p27
I1
sS'risk'
p28
I1
sS'activation'
p29
I3
sS'connects'
p30
I1
sS'sellers'
p31
I6
sS'stolen'
p32
I9
sS'every'
p33
I33
sS'jack'
p34
I4
sS'affect'
p35
I1
sS'blanked'
p36
I2
sS'lumia'
p37
I13
sS'school'
p38
I2
sS'ref'
p39
I2
sS'companies'
p40
I2
sS'solution'
p41
I2
sS'settings'
p42
I13
sS'heading'
p43
I1
sS'enjoy'
p44
I1
sS'dwindled'
p45
I1
sS'force'
p46
I3
sS'tired'
p47
I4
sS'phones'
p48
I100
sS'hating'
p49
I1
sS'direct'
p50
I1
sS'likely'
p51
I6
sS'compliance'
p52
I2
sS'implemented'
p53
I1
sS'specs'
p54
I6
sS'blue'
p55
I11
sS'microsofts'
p56
I3
sS'incompatible'
p57
I1
sS'hate'
p58
I9
sS'specification'
p59
I1
sS'selected'
p60
I2
sS'fingers'
p61
I1
sS'negates'
p62
I2
sS'lights'
p63
I2
sS'above'
p64
I2
sS'new'
p65
I112
sS'tips'
p66
I1
sS'ever'
p67
I53
sS'told'
p68
I64
sS'shocked'
p69
I4
sS'never'
p70
I63
sS'here'
p71
I19
sS'reported'
p72
I5
sS'protection'
p73
I1
sS'studio'
p74
I5
sS'kids'
p75
I2
sS'daughter'
p76
I9
sS'items'
p77
I9
sS'leaves'
p78
I2
sS'changed'
p79
I7
sS'itunes'
p80
I1
sS'credit'
p81
I7
sS'browsing'
p82
I1
sS'suitable'
p83
I2
sS'fantastic'
p84
I2
sS'mobility'
p85
I2
sS'explained'
p86
I1
sS'excuse'
p87
I3
sS'highly'
p88
I10
sS'brought'
p89
I6
sS'fixable'
p90
I2
sS'txt'
p91
I2
sS'unit'
p92
I3
sS'overheat'
p93
I1
sS'spoke'
p94
I3
sS'browse'
p95
I2
sS'negative'
p96
I5
sS'music'
p97
I24
sS'therefore'
p98
I2
sS'recommend'
p99
I42
sS'type'
p100
I9
sS'until'
p101
I34
sS'brings'
p102
I1
sS'yahoo'
p103
I1
sS'aware'
p104
I4
sS'warn'
p105
I3
sS'phone'
p106
I1338
sS'warm'
p107
I3
sS'excellent'
p108
I6
sS'hole'
p109
I1
sS'hold'
p110
I11
sS'outdated'
p111
I1
sS'slowest'
p112
I3
sS'must'
p113
I13
sS'locked'
p114
I11
sS'room'
p115
I6
sS'player'
p116
I5
sS'setup'
p117
I5
sS'mi'
p118
I4
sS'mu'
p119
I1
sS'movies'
p120
I3
sS'mp'
p121
I5
sS'install'
p122
I8
sS'mr'
p123
I3
sS'root'
p124
I3
sS'example'
p125
I4
sS'skype'
p126
I3
sS'india'
p127
I3
sS'caused'
p128
I2
sS'times'
p129
I37
sS'uae'
p130
I4
sS'guarantee'
p131
I3
sS'end'
p132
I31
sS'recovery'
p133
I1
sS'carriers'
p134
I3
sS'provide'
p135
I8
sS'travel'
p136
I2
sS'returning'
p137
I15
sS'nuts'
p138
I1
sS'feature'
p139
I13
sS'machine'
p140
I1
sS'far'
p141
I19
sS'amazing'
p142
I9
sS'answer'
p143
I15
sS'faulty'
p144
I2
sS'charging'
p145
I24
sS'badly'
p146
I3
sS'description'
p147
I13
sS'replacing'
p148
I3
sS'lag'
p149
I2
sS'customs'
p150
I2
sS'wrong'
p151
I21
sS'law'
p152
I2
sS'excited'
p153
I5
sS'purchase'
p154
I47
sS'attempt'
p155
I5
sS'third'
p156
I7
sS'sets'
p157
I1
sS'recieved'
p158
I1
sS'appreciate'
p159
I1
sS'enter'
p160
I5
sS'worst'
p161
I29
sS'operate'
p162
I2
sS'order'
p163
I26
sS'updates'
p164
I5
sS'feedback'
p165
I1
sS'office'
p166
I10
sS'satisfied'
p167
I6
sS'keyboard'
p168
I9
sS'responsive'
p169
I2
sS'exchange'
p170
I9
sS'before'
p171
I42
sS'difference'
p172
I5
sS'fit'
p173
I10
sS'personal'
p174
I3
sS'fix'
p175
I23
sS'expectations'
p176
I2
sS'writing'
p177
I5
sS'better'
p178
I30
sS'weeks'
p179
I30
sS'fin'
p180
I1
sS'eventually'
p181
I3
sS'combination'
p182
I3
sS'break'
p183
I5
sS'band'
p184
I9
sS'bank'
p185
I1
sS'brightness'
p186
I2
sS'rocks'
p187
I1
sS'arrow'
p188
I2
sS'each'
p189
I11
sS'went'
p190
I23
sS'side'
p191
I6
sS'luck'
p192
I12
sS'meets'
p193
I1
sS'series'
p194
I2
sS'upload'
p195
I1
sS'used'
p196
I52
sS'trading'
p197
I5
sS'hanged'
p198
I2
sS'saturday'
p199
I2
sS'network'
p200
I35
sS'driving'
p201
I2
sS'rs'
p202
I3
sS'god'
p203
I8
sS'tried'
p204
I42
sS'cameras'
p205
I2
sS'hooked'
p206
I2
sS'rd'
p207
I4
sS're'
p208
I18
sS'adjust'
p209
I4
sS'ra'
p210
I5
sS'got'
p211
I100
sS'newly'
p212
I1
sS'venezuela'
p213
I5
sS'turning'
p214
I14
sS'assured'
p215
I2
sS'little'
p216
I16
sS'free'
p217
I17
sS'standard'
p218
I3
sS'techno'
p219
I3
sS'wanted'
p220
I26
sS'shipper'
p221
I1
sS'starts'
p222
I6
sS'inexpensive'
p223
I2
sS'messages'
p224
I17
sS'days'
p225
I54
sS'ups'
p226
I1
sS'lousy'
p227
I1
sS'att'
p228
I13
sS'heck'
p229
I1
sS'moving'
p230
I1
sS'onto'
p231
I4
sS'speeds'
p232
I4
sS'user'
p233
I11
sS'rang'
p234
I1
sS'already'
p235
I25
sS'features'
p236
I22
sS'jamaica'
p237
I3
sS'primary'
p238
I2
sS'hoot'
p239
I1
sS'hearing'
p240
I3
sS'rant'
p241
I1
sS'another'
p242
I65
sS'clarity'
p243
I2
sS'electronic'
p244
I4
sS'toy'
p245
I3
sS'service'
p246
I130
sS'top'
p247
I15
sS'vibrate'
p248
I2
sS'needed'
p249
I21
sS'rates'
p250
I1
sS'too'
p251
I46
sS'tom'
p252
I3
sS'inconvenient'
p253
I2
sS'dogs'
p254
I1
sS'tod'
p255
I1
sS'listen'
p256
I3
sS'paltry'
p257
I2
sS'tool'
p258
I1
sS'took'
p259
I24
sS'somewhat'
p260
I1
sS'wasted'
p261
I5
sS'distance'
p262
I2
sS'messing'
p263
I1
sS'target'
p264
I1
sS'glorified'
p265
I2
sS'enabled'
p266
I1
sS'second'
p267
I30
sS'ebay'
p268
I2
sS'matter'
p269
I17
sS'speaking'
p270
I1
sS'iron'
p271
I1
sS'feeling'
p272
I1
sS'minus'
p273
I2
sS'mini'
p274
I5
sS'ran'
p275
I2
sS'navigate'
p276
I1
sS'ram'
p277
I7
sS'mind'
p278
I2
sS'mine'
p279
I15
sS'anybody'
p280
I2
sS'talking'
p281
I8
sS'seen'
p282
I7
sS'seem'
p283
I15
sS'mins'
p284
I2
sS'tells'
p285
I7
sS'contents'
p286
I2
sS'relatively'
p287
I3
sS'forced'
p288
I9
sS'strength'
p289
I2
sS'latter'
p290
I1
sS'gripe'
p291
I1
sS'sound'
p292
I20
sS'recommended'
p293
I6
sS'contact'
p294
I28
sS'niece'
p295
I4
sS'exactly'
p296
I3
sS'though'
p297
I27
sS'regular'
p298
I7
sS'letter'
p299
I5
sS'preassure'
p300
I2
sS'don'
p301
I1
sS'alarm'
p302
I8
sS'metal'
p303
I3
sS'spend'
p304
I9
sS'definitely'
p305
I11
sS'tech'
p306
I11
sS'consumer'
p307
I3
sS'responded'
p308
I2
sS'came'
p309
I27
sS'saying'
p310
I18
sS'overpriced'
p311
I1
sS'contacted'
p312
I24
sS'ringtones'
p313
I1
sS'labels'
p314
I1
sS'attempts'
p315
I6
sS'radio'
p316
I1
sS'supplied'
p317
I1
sS'tempted'
p318
I1
sS'cheaply'
p319
I2
sS'touches'
p320
I1
sS'busy'
p321
I5
sS'layout'
p322
I2
sS'menu'
p323
I11
sS'explain'
p324
I6
sS'sentence'
p325
I4
sS'hrs'
p326
I3
sS'theme'
p327
I1
sS'folks'
p328
I1
sS'folder'
p329
I1
sS'oct'
p330
I1
sS'borrowed'
p331
I1
sS'tiles'
p332
I3
sS'di'
p333
I2
sS'de'
p334
I6
sS'stop'
p335
I13
sS'preferred'
p336
I1
sS'pocket'
p337
I10
sS'shutting'
p338
I1
sS'altogether'
p339
I3
sS'report'
p340
I2
sS'net'
p341
I1
sS'comply'
p342
I2
sS'runs'
p343
I4
sS'bar'
p344
I5
sS'twice'
p345
I6
sS'bad'
p346
I43
sS'shots'
p347
I1
sS'carrier'
p348
I23
sS'release'
p349
I1
sS'automatic'
p350
I1
sS'gotta'
p351
I1
sS'thanks'
p352
I4
sS'respond'
p353
I6
sS'disaster'
p354
I1
sS'keypad'
p355
I3
sS'motherboard'
p356
I5
sS'sensitivity'
p357
I3
sS'testing'
p358
I1
sS'recieve'
p359
I1
sS'decided'
p360
I5
sS'result'
p361
I3
sS'fail'
p362
I3
sS'best'
p363
I13
sS'restocking'
p364
I4
sS'said'
p365
I46
sS'capacity'
p366
I1
sS'lots'
p367
I3
sS'away'
p368
I22
sS'rings'
p369
I2
sS'unable'
p370
I15
sS'melissa'
p371
I4
sS'hopefully'
p372
I8
sS'sorts'
p373
I1
sS'preserve'
p374
I1
sS'loose'
p375
I3
sS'packaged'
p376
I3
sS'however'
p377
I21
sS'loading'
p378
I2
sS'wear'
p379
I2
sS'wp'
p380
I6
sS'downgrade'
p381
I2
sS'blasted'
p382
I2
sS'suggested'
p383
I3
sS'received'
p384
I43
sS'protect'
p385
I4
sS'accident'
p386
I1
sS'reprogrammed'
p387
I2
sS'country'
p388
I15
sS'ill'
p389
I8
sS'against'
p390
I6
sS'games'
p391
I8
sS'restarting'
p392
I4
sS'lookin'
p393
I2
sS'receiver'
p394
I1
sS'argue'
p395
I1
sS'com'
p396
I4
sS'asked'
p397
I21
sS'con'
p398
I4
sS'tone'
p399
I5
sS'appeared'
p400
I1
sS'height'
p401
I2
sS'tons'
p402
I1
sS'loaded'
p403
I1
sS'refill'
p404
I3
sS'trust'
p405
I4
sS'speak'
p406
I6
sS'puts'
p407
I2
sS'basis'
p408
I6
sS'fro'
p409
I1
sS'three'
p410
I17
sS'been'
p411
I50
sS'quickly'
p412
I2
sS'restarts'
p413
I1
sS'much'
p414
I56
sS'refurbished'
p415
I17
sS'interest'
p416
I1
sS'basic'
p417
I11
sS'expected'
p418
I9
sS'dozens'
p419
I1
sS'threw'
p420
I2
sS'website'
p421
I12
sS'life'
p422
I20
sS'sooooo'
p423
I1
sS'generals'
p424
I2
sS'personally'
p425
I4
sS'catch'
p426
I1
sS'worked'
p427
I33
sS'exception'
p428
I1
sS'save'
p429
I20
sS'air'
p430
I2
sS'dept'
p431
I1
sS'near'
p432
I8
sS'suppose'
p433
I4
sS'cracked'
p434
I4
sS'voice'
p435
I17
sS'mistake'
p436
I6
sS'cons'
p437
I6
sS'played'
p438
I3
sS'ir'
p439
I2
sS'accessories'
p440
I8
sS'ii'
p441
I19
sS'shame'
p442
I8
sS'cant'
p443
I90
sS'im'
p444
I81
sS'io'
p445
I2
sS'vendor'
p446
I7
sS'id'
p447
I16
sS'trusted'
p448
I1
sS'damaged'
p449
I3
sS'lacking'
p450
I4
sS'perform'
p451
I2
sS'suggest'
p452
I2
sS'make'
p453
I72
sS'clearly'
p454
I9
sS'craigslist'
p455
I1
sS'unfortunate'
p456
I2
sS'several'
p457
I18
sS'showing'
p458
I4
sS'european'
p459
I4
sS'fairly'
p460
I2
sS'metropcs'
p461
I1
sS'memoria'
p462
I2
sS'hang'
p463
I4
sS'hand'
p464
I7
sS'documents'
p465
I1
sS'positives'
p466
I3
sS'thoughts'
p467
I1
sS'kid'
p468
I1
sS'mentioning'
p469
I1
sS'kept'
p470
I8
sS'programs'
p471
I1
sS'youre'
p472
I11
sS'client'
p473
I1
sS'greatest'
p474
I1
sS'pandora'
p475
I2
sS'mother'
p476
I6
sS'claims'
p477
I2
sS'paradigm'
p478
I1
sS'corporate'
p479
I3
sS'yours'
p480
I1
sS'left'
p481
I15
sS'yen'
p482
I1
sS'photo'
p483
I3
sS'thumbs'
p484
I1
sS'human'
p485
I3
sS'yes'
p486
I12
sS'yet'
p487
I13
sS'previous'
p488
I7
sS'adding'
p489
I1
sS'buyers'
p490
I7
sS'family'
p491
I6
sS'vibration'
p492
I2
sS'had'
p493
I203
sS'potential'
p494
I3
sS'board'
p495
I8
sS'easy'
p496
I7
sS'whatsapp'
p497
I1
sS'has'
p498
I128
sS'gave'
p499
I18
sS'usable'
p500
I2
sS'breaks'
p501
I3
sS'possible'
p502
I9
sS'possibly'
p503
I6
sS'lcd'
p504
I1
sS'background'
p505
I2
sS'performance'
p506
I3
sS'unique'
p507
I1
sS'advanced'
p508
I4
sS'apart'
p509
I1
sS'nevermind'
p510
I2
sS'appearing'
p511
I2
sS'gift'
p512
I8
sS'glitch'
p513
I3
sS'manual'
p514
I7
sS'zoom'
p515
I2
sS'theyre'
p516
I7
sS'specific'
p517
I2
sS'steps'
p518
I1
sS'night'
p519
I11
sS'security'
p520
I3
sS'whomever'
p521
I1
sS'ola'
p522
I2
sS'attorney'
p523
I2
sS'right'
p524
I32
sS'old'
p525
I27
sS'deal'
p526
I17
sS'people'
p527
I30
sS'sends'
p528
I2
sS'somehow'
p529
I5
sS'dead'
p530
I14
sS'hassle'
p531
I8
sS'multiple'
p532
I9
sS'xbox'
p533
I1
sS'tutorial'
p534
I1
sS'confusing'
p535
I3
sS'total'
p536
I11
sS'bottom'
p537
I9
sS'notification'
p538
I5
sS'ear'
p539
I3
sS'normal'
p540
I6
sS'comments'
p541
I2
sS'everything'
p542
I29
sS'asking'
p543
I5
sS'landscape'
p544
I1
sS'denied'
p545
I3
sS'fon'
p546
I2
sS'beating'
p547
I1
sS'christmas'
p548
I5
sS'core'
p549
I1
sS'deleted'
p550
I3
sS'marketing'
p551
I2
sS'hsn'
p552
I2
sS'doesnt'
p553
I67
sS'losing'
p554
I2
sS'post'
p555
I5
sS'manufacturing'
p556
I2
sS'super'
p557
I7
sS'plug'
p558
I11
sS'limitation'
p559
I1
sS'dollars'
p560
I7
sS'months'
p561
I58
sS'misleading'
p562
I2
sS'plus'
p563
I11
sS'afternoon'
p564
I2
sS'gingerbread'
p565
I1
sS'efforts'
p566
I2
sS'slightly'
p567
I1
sS'automatically'
p568
I8
sS'match'
p569
I3
sS'treble'
p570
I2
sS'whats'
p571
I4
sS'lied'
p572
I4
sS'wasting'
p573
I2
sS'son'
p574
I3
sS'down'
p575
I40
sS'complaints'
p576
I4
sS'wrap'
p577
I1
sS'pantalla'
p578
I1
sS'annoyance'
p579
I2
sS'rely'
p580
I1
sS'support'
p581
I51
sS'constantly'
p582
I13
sS'available'
p583
I16
sS'lags'
p584
I3
sS'gig'
p585
I2
sS'stuck'
p586
I16
sS'accordingly'
p587
I1
sS'call'
p588
I77
sS'wat'
p589
I1
sS'war'
p590
I2
sS'happy'
p591
I17
sS'head'
p592
I6
sS'battery'
p593
I87
sS'form'
p594
I5
sS'offer'
p595
I12
sS'something'
p596
I27
sS'attempted'
p597
I4
sS'wireless'
p598
I15
sS'failure'
p599
I2
sS'hear'
p600
I29
sS'removed'
p601
I4
sS'true'
p602
I8
sS'reset'
p603
I8
sS'responding'
p604
I3
sS'versions'
p605
I3
sS'prevents'
p606
I1
sS'inside'
p607
I6
sS'morning'
p608
I5
sS'attached'
p609
I2
sS'bargain'
p610
I1
sS'devices'
p611
I9
sS'tell'
p612
I20
sS'delete'
p613
I4
sS'mails'
p614
I2
sS'promises'
p615
I1
sS'request'
p616
I8
sS'proven'
p617
I1
sS'sale'
p618
I2
sS'qwerty'
p619
I2
sS'sometime'
p620
I1
sS'exist'
p621
I1
sS'promised'
p622
I2
sS'awhile'
p623
I1
sS'annoying'
p624
I13
sS'ericsson'
p625
I6
sS'dealer'
p626
I1
sS'physical'
p627
I2
sS'techs'
p628
I2
sS'no'
p629
I235
sS'na'
p630
I3
sS'excel'
p631
I1
sS'falsely'
p632
I2
sS'holding'
p633
I2
sS'digital'
p634
I1
sS'test'
p635
I2
sS'unwilling'
p636
I2
sS'nu'
p637
I1
sS'realize'
p638
I1
sS'tic'
p639
I1
sS'picture'
p640
I20
sS'reconsider'
p641
I1
sS'models'
p642
I1
sS'dies'
p643
I4
sS'why'
p644
I30
sS'felt'
p645
I5
sS'update'
p646
I27
sS'fell'
p647
I2
sS'weekend'
p648
I2
sS'unlocking'
p649
I1
sS'died'
p650
I12
sS'happening'
p651
I2
sS'bullet'
p652
I2
sS'glass'
p653
I12
sS'together'
p654
I6
sS'gorilla'
p655
I2
sS'loyal'
p656
I3
sS'reception'
p657
I11
sS'time'
p658
I121
sS'push'
p659
I2
sS'serious'
p660
I5
sS'songs'
p661
I3
sS'managed'
p662
I2
sS'rom'
p663
I4
sS'chain'
p664
I2
sS'switched'
p665
I3
sS'reviewers'
p666
I1
sS'activated'
p667
I6
sS'manager'
p668
I5
sS'ice'
p669
I1
sS'skin'
p670
I1
sS'bomber'
p671
I2
sS'rot'
p672
I1
sS'certainly'
p673
I1
sS'suicide'
p674
I2
sS'depend'
p675
I2
sS'nexus'
p676
I2
sS'zone'
p677
I2
sS'flash'
p678
I10
sS'gigs'
p679
I2
sS'answered'
p680
I3
sS'finally'
p681
I25
sS'dissatisfied'
p682
I3
sS'downloading'
p683
I3
sS'prepaid'
p684
I10
sS'frequencies'
p685
I3
sS'keeping'
p686
I2
sS'seemingly'
p687
I1
sS'choice'
p688
I3
sS'advised'
p689
I3
sS'word'
p690
I10
sS'trouble'
p691
I8
sS'exact'
p692
I4
sS'minute'
p693
I2
sS'cool'
p694
I7
sS'dim'
p695
I2
sS'impressive'
p696
I1
sS'level'
p697
I6
sS'did'
p698
I93
sS'die'
p699
I4
sS'fragile'
p700
I1
sS'brother'
p701
I2
sS'standards'
p702
I3
sS'leave'
p703
I3
sS'item'
p704
I28
sS'team'
p705
I2
sS'quick'
p706
I3
sS'loads'
p707
I1
sS'mo'
p708
I2
sS'added'
p709
I4
sS'dis'
p710
I4
sS'prevent'
p711
I1
sS'droid'
p712
I3
sS'htc'
p713
I6
sS'regret'
p714
I6
sS'dealing'
p715
I3
sS'discover'
p716
I1
sS'sign'
p717
I3
sS'slowed'
p718
I1
sS'cost'
p719
I9
sS'port'
p720
I9
sS'headset'
p721
I2
sS'appear'
p722
I5
sS'mt'
p723
I3
sS'heres'
p724
I4
sS'assistance'
p725
I1
sS'current'
p726
I3
sS'suspect'
p727
I3
sS'goes'
p728
I15
sS'international'
p729
I38
sS'falling'
p730
I4
sS'boost'
p731
I9
sS'slot'
p732
I9
sS'ms'
p733
I1
sS'clerk'
p734
I1
sS'understanding'
p735
I1
sS'water'
p736
I3
sS'downloaded'
p737
I11
sS'slow'
p738
I33
sS'issued'
p739
I2
sS'address'
p740
I9
sS'alone'
p741
I3
sS'along'
p742
I4
sS'hoops'
p743
I2
sS'appears'
p744
I8
sS'change'
p745
I19
sS'wait'
p746
I10
sS'box'
p747
I30
sS'boy'
p748
I4
sS'incoming'
p749
I3
sS'noticeable'
p750
I1
sS'canadian'
p751
I2
sS'suggestion'
p752
I2
sS'usually'
p753
I4
sS'weird'
p754
I3
sS'navigation'
p755
I3
sS'negatives'
p756
I1
sS'tasks'
p757
I1
sS'useful'
p758
I5
sS'lasts'
p759
I2
sS'extra'
p760
I11
sS'problematic'
p761
I1
sS'unlocked'
p762
I51
sS'marked'
p763
I2
sS'sincerely'
p764
I2
sS'pixi'
p765
I2
sS'scam'
p766
I7
sS'mobil'
p767
I3
sS'market'
p768
I11
sS'trinidad'
p769
I2
sS'este'
p770
I3
sS'working'
p771
I62
sS'positive'
p772
I3
sS'angry'
p773
I1
sS'connector'
p774
I4
sS'live'
p775
I7
sS'iphone'
p776
I28
sS'wondering'
p777
I1
sS'memory'
p778
I48
sS'associated'
p779
I2
sS'thru'
p780
I2
sS'today'
p781
I15
sS'scratched'
p782
I2
sS'faith'
p783
I2
sS'clicking'
p784
I3
sS'acceptable'
p785
I1
sS'clients'
p786
I1
sS'visual'
p787
I1
sS'everywhere'
p788
I2
sS'scratches'
p789
I4
sS'cases'
p790
I2
sS'effort'
p791
I4
sS'anything'
p792
I40
sS'dialed'
p793
I5
sS'car'
p794
I4
sS'originally'
p795
I1
sS'pretend'
p796
I1
sS'cat'
p797
I1
sS'reviews'
p798
I22
sS'labeled'
p799
I3
sS'printing'
p800
I1
sS'renders'
p801
I1
sS'hope'
p802
I16
sS'cam'
p803
I1
sS'cal'
p804
I1
sS'following'
p805
I4
sS'making'
p806
I15
sS'arrive'
p807
I1
sS'slightest'
p808
I1
sS'cad'
p809
I2
sS'exchanged'
p810
I2
sS'crazy'
p811
I1
sS'figure'
p812
I9
sS'garbled'
p813
I2
sS'december'
p814
I3
sS'awesome'
p815
I8
sS'confused'
p816
I1
sS'agent'
p817
I5
sS'heard'
p818
I7
sS'dropped'
p819
I16
sS'allowed'
p820
I1
sS'pink'
p821
I1
sS'fortunately'
p822
I1
sS'tilt'
p823
I2
sS'means'
p824
I11
sS'freezes'
p825
I14
sS'write'
p826
I12
sS'till'
p827
I2
sS'fps'
p828
I2
sS'tile'
p829
I3
sS'absolute'
p830
I5
sS'eight'
p831
I2
sS'map'
p832
I3
sS'product'
p833
I67
sS'designer'
p834
I1
sS'explorer'
p835
I1
sS'crashes'
p836
I6
sS'huge'
p837
I5
sS'may'
p838
I18
sS'freezing'
p839
I5
sS'spot'
p840
I4
sS'disgusted'
p841
I3
sS'applications'
p842
I13
sS'mac'
p843
I2
sS'designed'
p844
I5
sS'date'
p845
I7
sS'such'
p846
I14
sS'data'
p847
I26
sS'compatibility'
p848
I2
sS'man'
p849
I3
sS'stress'
p850
I3
sS'surfing'
p851
I1
sS'remember'
p852
I1
sS'whenever'
p853
I2
sS'maybe'
p854
I13
sS'st'
p855
I8
sS'switch'
p856
I12
sS'sh'
p857
I3
sS'unfreeze'
p858
I2
sS'sn'
p859
I2
sS'talk'
p860
I33
sS'sd'
p861
I20
sS'refund'
p862
I37
sS'breaking'
p863
I1
sS'distributors'
p864
I3
sS'repair'
p865
I20
sS'indeed'
p866
I1
sS'pointed'
p867
I2
sS'mainly'
p868
I1
sS'unacceptable'
p869
I7
sS'years'
p870
I19
sS'course'
p871
I8
sS'cuts'
p872
I1
sS'equip'
p873
I2
sS'still'
p874
I74
sS'group'
p875
I2
sS'thank'
p876
I3
sS'internationally'
p877
I2
sS'menus'
p878
I1
sS'hot'
p879
I6
sS'platform'
p880
I2
sS'window'
p881
I5
sS'offers'
p882
I3
sS'policy'
p883
I7
sS'mail'
p884
I9
sS'main'
p885
I9
sS'ugly'
p886
I1
sS'texas'
p887
I3
sS'happened'
p888
I7
sS'correspondence'
p889
I2
sS'non'
p890
I17
sS'emailed'
p891
I8
sS'conversations'
p892
I2
sS'touching'
p893
I1
sS'half'
p894
I16
sS'not'
p895
I683
sS'nov'
p896
I2
sS'discuss'
p897
I1
sS'nor'
p898
I6
sS'matched'
p899
I1
sS'wont'
p900
I44
sS'leds'
p901
I2
sS'name'
p902
I8
sS'january'
p903
I1
sS'drop'
p904
I7
sS'debating'
p905
I1
sS'repaired'
p906
I6
sS'em'
p907
I3
sS'el'
p908
I3
sS'en'
p909
I1
sS'hiccups'
p910
I1
sS'ed'
p911
I8
sS'receipt'
p912
I5
sS'yeah'
p913
I2
sS'unlock'
p914
I22
sS'ex'
p915
I1
sS'entering'
p916
I1
sS'happen'
p917
I13
sS'summary'
p918
I2
sS'eq'
p919
I2
sS'es'
p920
I17
sS'er'
p921
I15
sS'canada'
p922
I5
sS'living'
p923
I3
sS'ultimately'
p924
I2
sS'opened'
p925
I12
sS'space'
p926
I19
sS'blu'
p927
I35
sS'factory'
p928
I21
sS'increase'
p929
I3
sS'seriously'
p930
I5
sS'stupid'
p931
I6
sS'void'
p932
I4
sS'internet'
p933
I33
sS'receiving'
p934
I5
sS'sensor'
p935
I6
sS'correct'
p936
I3
sS'shows'
p937
I10
sS'earlier'
p938
I2
sS'state'
p939
I5
sS'quite'
p940
I4
sS'complicated'
p941
I2
sS'obligation'
p942
I2
sS'card'
p943
I90
sS'care'
p944
I18
sS'bloatware'
p945
I1
sS'language'
p946
I7
sS'connectivity'
p947
I4
sS'standby'
p948
I3
sS'headphones'
p949
I5
sS'programming'
p950
I1
sS'tries'
p951
I3
sS'honest'
p952
I1
sS'thing'
p953
I35
sS'place'
p954
I11
sS'massive'
p955
I2
sS'router'
p956
I3
sS'star'
p957
I17
sS'waited'
p958
I2
sS'origin'
p959
I2
sS'info'
p960
I7
sS'initial'
p961
I3
sS'saving'
p962
I2
sS'predictive'
p963
I3
sS'yourself'
p964
I10
sS'long'
p965
I24
sS'directly'
p966
I6
sS'spanish'
p967
I4
sS'carry'
p968
I1
sS'impossible'
p969
I11
sS'message'
p970
I16
sS'open'
p971
I20
sS'size'
p972
I8
sS'city'
p973
I1
sS'given'
p974
I7
sS'ian'
p975
I2
sS'checked'
p976
I9
sS'silent'
p977
I3
sS'europe'
p978
I3
sS'plastic'
p979
I6
sS'anyone'
p980
I25
sS'returns'
p981
I2
sS'moisture'
p982
I2
sS'typing'
p983
I2
sS'white'
p984
I5
sS'friend'
p985
I1
sS'gives'
p986
I1
sS'exploring'
p987
I1
sS'mostly'
p988
I2
sS'thay'
p989
I3
sS'huh'
p990
I2
sS'accurately'
p991
I2
sS'released'
p992
I2
sS'ridiculous'
p993
I4
sS'returnable'
p994
I2
sS'quirky'
p995
I1
sS'copy'
p996
I1
sS'boyfriend'
p997
I2
sS'wide'
p998
I3
sS'rugged'
p999
I1
sS'unfortunately'
p1000
I8
sS'crack'
p1001
I3
sS'require'
p1002
I2
sS'transferred'
p1003
I1
sS'future'
p1004
I6
sS'were'
p1005
I53
sS'cards'
p1006
I18
sS'college'
p1007
I1
sS'dissapointed'
p1008
I2
sS'browser'
p1009
I2
sS'pre'
p1010
I4
sS'files'
p1011
I2
sS'gathering'
p1012
I2
sS'san'
p1013
I3
sS'remained'
p1014
I3
sS'pro'
p1015
I4
sS'turned'
p1016
I13
sS'locations'
p1017
I1
sS'sad'
p1018
I5
sS'slam'
p1019
I1
sS'sells'
p1020
I1
sS'recover'
p1021
I1
sS'saw'
p1022
I3
sS'sat'
p1023
I3
sS'speakers'
p1024
I3
sS'answering'
p1025
I1
sS'aside'
p1026
I3
sS'hotspot'
p1027
I1
sS'note'
p1028
I40
sS'ideal'
p1029
I4
sS'squad'
p1030
I2
sS'take'
p1031
I37
sS'online'
p1032
I16
sS'wanting'
p1033
I2
sS'wonder'
p1034
I4
sS'switching'
p1035
I3
sS'channel'
p1036
I1
sS'towers'
p1037
I1
sS'begin'
p1038
I2
sS'sure'
p1039
I27
sS'pain'
p1040
I3
sS'opposite'
p1041
I2
sS'track'
p1042
I6
sS'price'
p1043
I27
sS'knew'
p1044
I6
sS'paid'
p1045
I27
sS'falls'
p1046
I2
sS'pair'
p1047
I1
sS'america'
p1048
I4
sS'pages'
p1049
I1
sS'icon'
p1050
I6
sS'forever'
p1051
I11
sS'especially'
p1052
I7
sS'notifications'
p1053
I1
sS'considered'
p1054
I3
sS'later'
p1055
I24
sS'drive'
p1056
I2
sS'tooth'
p1057
I1
sS'professional'
p1058
I1
sS'typically'
p1059
I1
sS'shop'
p1060
I6
sS'rating'
p1061
I8
sS'shot'
p1062
I1
sS'show'
p1063
I7
sS'german'
p1064
I3
sS'cheap'
p1065
I28
sS'sites'
p1066
I4
sS'discovered'
p1067
I3
sS'bright'
p1068
I1
sS'inconsistent'
p1069
I2
sS'corner'
p1070
I2
sS'fifth'
p1071
I1
sS'crashing'
p1072
I1
sS'aint'
p1073
I3
sS'upgrade'
p1074
I7
sS'title'
p1075
I3
sS'outside'
p1076
I10
sS'going'
p1077
I44
sS'black'
p1078
I8
sS'telefono'
p1079
I2
sS'fades'
p1080
I2
sS'closed'
p1081
I2
sS'jellybean'
p1082
I2
sS'reps'
p1083
I2
sS'expectation'
p1084
I1
sS'truly'
p1085
I2
sS'cannot'
p1086
I45
sS'nearly'
p1087
I4
sS'trade'
p1088
I3
sS'regarding'
p1089
I3
sS'keyboards'
p1090
I1
sS'requesting'
p1091
I2
sS'miles'
p1092
I2
sS'liable'
p1093
I2
sS'where'
p1094
I27
sS'husband'
p1095
I5
sS'signs'
p1096
I1
sS'digicel'
p1097
I2
sS'anyways'
p1098
I1
sS'seal'
p1099
I3
sS'calendar'
p1100
I1
sS'ruined'
p1101
I2
sS'concern'
p1102
I1
sS'fails'
p1103
I6
sS'detect'
p1104
I4
sS'ways'
p1105
I1
sS'review'
p1106
I16
sS'representatives'
p1107
I2
sS'label'
p1108
I1
sS'cd'
p1109
I3
sS'enough'
p1110
I20
sS'between'
p1111
I8
sS'ui'
p1112
I4
sS'reading'
p1113
I5
sS'across'
p1114
I2
sS'wouldve'
p1115
I2
sS'affordable'
p1116
I1
sS'notice'
p1117
I5
sS'august'
p1118
I1
sS'parental'
p1119
I2
sS'screen'
p1120
I91
sS'jo'
p1121
I1
sS'pixels'
p1122
I2
sS'dates'
p1123
I1
sS'many'
p1124
I29
sS'voicemail'
p1125
I2
sS'according'
p1126
I2
sS'contract'
p1127
I14
sS'somewhere'
p1128
I1
sS'disappointment'
p1129
I1
sS'razrs'
p1130
I4
sS'comes'
p1131
I12
sS'siii'
p1132
I5
sS'color'
p1133
I2
sS'effective'
p1134
I1
sS'por'
p1135
I4
sS'period'
p1136
I6
sS'pop'
p1137
I5
sS'satisfaction'
p1138
I2
sS'iterations'
p1139
I1
sS'supervisor'
p1140
I3
sS'pod'
p1141
I1
sS'considering'
p1142
I6
sS'unusual'
p1143
I2
sS'capable'
p1144
I3
sS'informed'
p1145
I5
sS'vacation'
p1146
I2
sS'hardly'
p1147
I4
sS'wants'
p1148
I8
sS'enable'
p1149
I1
sS'shopping'
p1150
I1
sS'offered'
p1151
I8
sS'photos'
p1152
I4
sS'wake'
p1153
I3
sS'covers'
p1154
I2
sS'careful'
p1155
I8
sS'former'
p1156
I1
sS'those'
p1157
I21
sS'case'
p1158
I19
sS'myself'
p1159
I7
sS'mount'
p1160
I1
sS'worried'
p1161
I2
sS'cash'
p1162
I2
sS'trick'
p1163
I2
sS'situation'
p1164
I5
sS'shops'
p1165
I1
sS'ive'
p1166
I48
sS'telephone'
p1167
I10
sS'middle'
p1168
I4
sS'good'
p1169
I96
sS'ambient'
p1170
I2
sS'return'
p1171
I63
sS'technology'
p1172
I2
sS'ship'
p1173
I7
sS'different'
p1174
I26
sS'verified'
p1175
I5
sS'assure'
p1176
I2
sS'pay'
p1177
I29
sS'granted'
p1178
I2
sS'same'
p1179
I56
sS'check'
p1180
I13
sS'figuring'
p1181
I1
sS'pad'
p1182
I3
sS'reminder'
p1183
I1
sS'document'
p1184
I2
sS'week'
p1185
I17
sS'driver'
p1186
I2
sS'muffled'
p1187
I4
sS'persons'
p1188
I1
sS'running'
p1189
I12
sS'wired'
p1190
I3
sS'advertisement'
p1191
I4
sS'hsdpa'
p1192
I9
sS'totally'
p1193
I12
sS'drain'
p1194
I2
sS'modes'
p1195
I1
sS'charges'
p1196
I6
sS'charger'
p1197
I26
sS'floor'
p1198
I1
sS'costs'
p1199
I3
sS'solve'
p1200
I4
sS'relief'
p1201
I1
sS'model'
p1202
I25
sS'reward'
p1203
I2
sS'charged'
p1204
I17
sS'being'
p1205
I36
sS'tip'
p1206
I2
sS'actions'
p1207
I1
sS'reputable'
p1208
I2
sS'touch'
p1209
I22
sS'speed'
p1210
I2
sS'death'
p1211
I8
sS'secondly'
p1212
I1
sS'application'
p1213
I7
sS'thinking'
p1214
I5
sS'seems'
p1215
I22
sS'except'
p1216
I12
sS'desktop'
p1217
I2
sS'lets'
p1218
I4
sS'setting'
p1219
I10
sS'surprise'
p1220
I9
sS'flashing'
p1221
I2
sS'instructions'
p1222
I8
sS'real'
p1223
I9
sS'around'
p1224
I14
sS'read'
p1225
I23
sS'demonstrated'
p1226
I2
sS'gonna'
p1227
I4
sS'pos'
p1228
I2
sS'dark'
p1229
I3
sS'np'
p1230
I1
sS'darn'
p1231
I1
sS'detract'
p1232
I1
sS'using'
p1233
I39
sS'glitches'
p1234
I4
sS'disappointed'
p1235
I46
sS'outlet'
p1236
I1
sS'serves'
p1237
I3
sS'server'
p1238
I1
sS'shutter'
p1239
I1
sS'benefit'
p1240
I1
sS'either'
p1241
I29
sS'always'
p1242
I16
sS'served'
p1243
I1
sS'tower'
p1244
I2
sS'reduced'
p1245
I1
sS'specifies'
p1246
I4
sS'exposed'
p1247
I2
sS'specified'
p1248
I2
sS'images'
p1249
I2
sS'provided'
p1250
I7
sS'caribbean'
p1251
I3
sS'confirm'
p1252
I1
sS'stops'
p1253
I4
sS'exit'
p1254
I1
sS'provides'
p1255
I1
sS'provider'
p1256
I17
sS'content'
p1257
I3
sS'refer'
p1258
I2
sS'accessing'
p1259
I1
sS'power'
p1260
I19
sS'asap'
p1261
I2
sS'seconds'
p1262
I7
sS'manufactured'
p1263
I6
sS'polite'
p1264
I3
sS'broken'
p1265
I15
sS'roaming'
p1266
I2
sS'throw'
p1267
I2
sS'manufacturer'
p1268
I5
sS'lens'
p1269
I1
sS'ok'
p1270
I19
sS'ace'
p1271
I1
sS'oh'
p1272
I8
sS'industry'
p1273
I1
sS'favorite'
p1274
I3
sS'stand'
p1275
I4
sS'youve'
p1276
I3
sS'mixed'
p1277
I2
sS'ou'
p1278
I2
sS'mean'
p1279
I7
sS'backup'
p1280
I3
sS'processor'
p1281
I5
sS'road'
p1282
I2
sS'researching'
p1283
I1
sS'communication'
p1284
I3
sS'image'
p1285
I1
sS'youd'
p1286
I1
sS'child'
p1287
I2
sS'escalated'
p1288
I2
sS'accounts'
p1289
I3
sS'operator'
p1290
I1
sS'nowadays'
p1291
I2
sS'fast'
p1292
I10
sS'log'
p1293
I1
sS'area'
p1294
I6
sS'assumed'
p1295
I2
sS'lol'
p1296
I4
sS'start'
p1297
I15
sS'low'
p1298
I18
sS'lot'
p1299
I26
sS'materials'
p1300
I1
sS'complete'
p1301
I10
sS'drains'
p1302
I1
sS'buggy'
p1303
I5
sS'unreliable'
p1304
I6
sS'trying'
p1305
I28
sS'buying'
p1306
I24
sS'longer'
p1307
I19
sS'volume'
p1308
I18
sS'pull'
p1309
I2
sS'october'
p1310
I2
sS'default'
p1311
I3
sS'tones'
p1312
I2
sS'agree'
p1313
I2
sS'darker'
p1314
I1
sS'strongly'
p1315
I2
sS'gone'
p1316
I6
sS'ac'
p1317
I6
sS'ad'
p1318
I9
sS'videos'
p1319
I7
sS'certain'
p1320
I5
sS'moved'
p1321
I2
sS'sales'
p1322
I3
sS'general'
p1323
I4
sS'ar'
p1324
I2
sS'daily'
p1325
I3
sS'file'
p1326
I9
sS'av'
p1327
I1
sS'watched'
p1328
I2
sS'film'
p1329
I2
sS'fill'
p1330
I1
sS'again'
p1331
I56
sS'receive'
p1332
I27
sS'antenna'
p1333
I2
sS'deserve'
p1334
I3
sS'storage'
p1335
I26
sS'prism'
p1336
I2
sS'valid'
p1337
I2
sS'someones'
p1338
I1
sS'trash'
p1339
I4
sS'intention'
p1340
I2
sS'poor'
p1341
I18
sS'requested'
p1342
I5
sS'refunded'
p1343
I2
sS'important'
p1344
I4
sS'coverage'
p1345
I7
sS'included'
p1346
I2
sS'unresponsive'
p1347
I4
sS'shipping'
p1348
I19
sS'calls'
p1349
I53
sS'wife'
p1350
I7
sS'invest'
p1351
I1
sS'wifi'
p1352
I37
sS'websites'
p1353
I3
sS'having'
p1354
I24
sS'boosters'
p1355
I2
sS'alright'
p1356
I1
sS'overseas'
p1357
I4
sS'theyll'
p1358
I2
sS'resolution'
p1359
I3
sS'original'
p1360
I17
sS'bmw'
p1361
I2
sS'forget'
p1362
I9
sS'chinese'
p1363
I9
sS'sms'
p1364
I2
sS'beware'
p1365
I11
sS'lack'
p1366
I8
sS'dollar'
p1367
I4
sS'month'
p1368
I38
sS'gt'
p1369
I12
sS'follow'
p1370
I6
sS'faster'
p1371
I3
sS'children'
p1372
I1
sS'carpet'
p1373
I2
sS'shattered'
p1374
I2
sS'ron'
p1375
I2
sS'tv'
p1376
I2
sS'ts'
p1377
I1
sS'tl'
p1378
I2
sS'th'
p1379
I4
sS'ti'
p1380
I3
sS'ta'
p1381
I4
sS'activities'
p1382
I2
sS'appointment'
p1383
I1
sS'parcel'
p1384
I2
sS'sitting'
p1385
I3
sS'very'
p1386
I122
sS'fan'
p1387
I3
sS'decide'
p1388
I4
sS'fall'
p1389
I1
sS'awful'
p1390
I8
sS'sony'
p1391
I7
sS'manageable'
p1392
I1
sS'condition'
p1393
I8
sS'cable'
p1394
I7
sS'mothers'
p1395
I2
sS'sluggish'
p1396
I1
sS'list'
p1397
I22
sS'large'
p1398
I2
sS'bypassed'
p1399
I1
sS'small'
p1400
I11
sS'tel'
p1401
I1
sS'ten'
p1402
I5
sS'sync'
p1403
I7
sS'past'
p1404
I6
sS'rate'
p1405
I3
sS'design'
p1406
I8
sS'displays'
p1407
I4
sS'pass'
p1408
I2
sS'further'
p1409
I2
sS'functioning'
p1410
I3
sS'returned'
p1411
I32
sS'dial'
p1412
I12
sS'sub'
p1413
I2
sS'consumers'
p1414
I3
sS'clock'
p1415
I3
sS'investing'
p1416
I2
sS'deeply'
p1417
I1
sS'section'
p1418
I2
sS'brief'
p1419
I1
sS'version'
p1420
I17
sS'reboots'
p1421
I5
sS'learned'
p1422
I7
sS'method'
p1423
I1
sS'edited'
p1424
I2
sS'full'
p1425
I22
sS'ma'
p1426
I4
sS'replaceable'
p1427
I1
sS'simcard'
p1428
I2
sS'answers'
p1429
I2
sS'hours'
p1430
I25
sS'operating'
p1431
I8
sS'directions'
p1432
I1
sS'november'
p1433
I5
sS'strong'
p1434
I2
sS'table'
p1435
I3
sS'breakable'
p1436
I3
sS'search'
p1437
I6
sS'bible'
p1438
I3
sS'sender'
p1439
I3
sS'ahead'
p1440
I6
sS'razr'
p1441
I3
sS'allows'
p1442
I3
sS'experience'
p1443
I21
sS'pics'
p1444
I6
sS'prior'
p1445
I5
sS'amount'
p1446
I10
sS'arent'
p1447
I4
sS'pick'
p1448
I7
sS'action'
p1449
I1
sS'options'
p1450
I14
sS'via'
p1451
I10
sS'thankfully'
p1452
I2
sS'unsatisfactory'
p1453
I2
sS'suddenly'
p1454
I2
sS'transit'
p1455
I2
sS'africa'
p1456
I9
sS'speakerphone'
p1457
I4
sS'screens'
p1458
I3
sS'texts'
p1459
I2
sS'indoors'
p1460
I1
sS'pdfs'
p1461
I2
sS'illumishield'
p1462
I1
sS'letterhead'
p1463
I3
sS'select'
p1464
I13
sS'mb'
p1465
I7
sS'flaws'
p1466
I2
sS'takes'
p1467
I23
sS'etc'
p1468
I13
sS'texting'
p1469
I8
sS'charge'
p1470
I50
sS'comparing'
p1471
I2
sS'taken'
p1472
I9
sS'branded'
p1473
I3
sS'preloaded'
p1474
I2
sS'minor'
p1475
I1
sS'more'
p1476
I83
sS'flaw'
p1477
I5
sS'door'
p1478
I1
sS'knows'
p1479
I2
sS'company'
p1480
I47
sS'corrected'
p1481
I1
sS'tested'
p1482
I2
sS'basically'
p1483
I11
sS'broke'
p1484
I12
sS'known'
p1485
I4
sS'glad'
p1486
I3
sS'hardware'
p1487
I10
sS'none'
p1488
I9
sS'hour'
p1489
I9
sS'sucks'
p1490
I20
sS'installing'
p1491
I3
sS'sudden'
p1492
I12
sS'sent'
p1493
I43
sS'learn'
p1494
I4
sS'deb'
p1495
I2
sS'dec'
p1496
I2
sS'history'
p1497
I4
sS'beautiful'
p1498
I5
sS'purchases'
p1499
I5
sS'compare'
p1500
I4
sS'needing'
p1501
I1
sS'embarrassing'
p1502
I3
sS'pushes'
p1503
I2
sS'stated'
p1504
I7
sS'salesmen'
p1505
I2
sS'share'
p1506
I1
sS'accept'
p1507
I6
sS'states'
p1508
I3
sS'smartphone'
p1509
I6
sS'numbers'
p1510
I8
sS'purchased'
p1511
I58
sS'sense'
p1512
I2
sS'airplane'
p1513
I2
sS'information'
p1514
I18
sS'needs'
p1515
I10
sS'awkward'
p1516
I1
sS'rather'
p1517
I5
sS'plans'
p1518
I2
sS'acts'
p1519
I1
sS'pressing'
p1520
I5
sS'shipped'
p1521
I8
sS'stayed'
p1522
I4
sS'everyday'
p1523
I1
sS'maps'
p1524
I4
sS'occasionally'
p1525
I1
sS'shouldnt'
p1526
I9
sS'okay'
p1527
I3
sS'intended'
p1528
I4
sS'rude'
p1529
I2
sS'advice'
p1530
I3
sS'minimum'
p1531
I3
sS'par'
p1532
I4
sS'fa'
p1533
I1
sS'fb'
p1534
I4
sS'disable'
p1535
I3
sS'coming'
p1536
I9
sS'shuts'
p1537
I9
sS'fl'
p1538
I2
sS'response'
p1539
I13
sS'refuse'
p1540
I4
sS'short'
p1541
I4
sS'loud'
p1542
I4
sS'register'
p1543
I3
sS'bugs'
p1544
I8
sS'anytime'
p1545
I1
sS'perhaps'
p1546
I1
sS'responsibility'
p1547
I4
sS'media'
p1548
I6
sS'putting'
p1549
I3
sS'lasting'
p1550
I1
sS'playing'
p1551
I4
sS'tallahassee'
p1552
I3
sS'help'
p1553
I42
sS'stays'
p1554
I2
sS'soon'
p1555
I9
sS'installed'
p1556
I9
sS'stylus'
p1557
I4
sS'held'
p1558
I4
sS'isnt'
p1559
I13
sS'paper'
p1560
I3
sS'through'
p1561
I37
sS'reconnect'
p1562
I2
sS'replies'
p1563
I1
sS'hell'
p1564
I3
sS'dont'
p1565
I125
sS'messed'
p1566
I1
sS'style'
p1567
I1
sS'pens'
p1568
I1
sS'pcs'
p1569
I1
sS'actually'
p1570
I13
sS'late'
p1571
I3
sS'systems'
p1572
I1
sS'might'
p1573
I12
sS'fool'
p1574
I3
sS'evening'
p1575
I1
sS'somebody'
p1576
I1
sS'yo'
p1577
I3
sS'ya'
p1578
I3
sS'gadget'
p1579
I1
sS'noticing'
p1580
I1
sS'number'
p1581
I36
sS'walls'
p1582
I2
sS'yr'
p1583
I2
sS'sucked'
p1584
I1
sS'easily'
p1585
I5
sS'fully'
p1586
I8
sS'payed'
p1587
I2
sS'micro'
p1588
I2
sS'someone'
p1589
I17
sS'habits'
p1590
I4
sS'stopped'
p1591
I34
sS'turns'
p1592
I5
sS'found'
p1593
I22
sS'difficult'
p1594
I7
sS'ports'
p1595
I1
sS'heavy'
p1596
I2
sS'malfunction'
p1597
I2
sS'everyone'
p1598
I3
sS'customization'
p1599
I2
sS'weight'
p1600
I2
sS'needless'
p1601
I2
sS'house'
p1602
I8
sS'energy'
p1603
I1
sS'hard'
p1604
I26
sS'reduce'
p1605
I1
sS'idea'
p1606
I6
sS'accidentally'
p1607
I2
sS'expect'
p1608
I16
sS'beyond'
p1609
I5
sS'insurance'
p1610
I7
sS'really'
p1611
I59
sS'try'
p1612
I28
sS'missed'
p1613
I3
sS'wondered'
p1614
I2
sS'solved'
p1615
I1
sS'since'
p1616
I47
sS'research'
p1617
I14
sS'acting'
p1618
I4
sS'shipment'
p1619
I2
sS'print'
p1620
I1
sS'issue'
p1621
I24
sS'bye'
p1622
I2
sS'pathetic'
p1623
I3
sS'dirt'
p1624
I1
sS'upon'
p1625
I5
sS'friday'
p1626
I2
sS'warrenty'
p1627
I2
sS'guess'
p1628
I13
sS'mms'
p1629
I1
sS'bulls'
p1630
I2
sS'symbian'
p1631
I2
sS'difficulty'
p1632
I2
sS'reason'
p1633
I23
sS'base'
p1634
I3
sS'members'
p1635
I2
sS'imagine'
p1636
I4
sS'ask'
p1637
I10
sS'beginning'
p1638
I4
sS'guy'
p1639
I3
sS'owners'
p1640
I1
sS'launch'
p1641
I1
sS'finland'
p1642
I1
sS'terrible'
p1643
I20
sS'terribly'
p1644
I2
sS'expecting'
p1645
I5
sS'cdma'
p1646
I5
sS'major'
p1647
I16
sS'rooted'
p1648
I4
sS'feel'
p1649
I12
sS'unusable'
p1650
I1
sS'fancy'
p1651
I1
sS'feet'
p1652
I3
sS'done'
p1653
I7
sS'least'
p1654
I22
sS'fees'
p1655
I2
sS'slower'
p1656
I2
sS'miss'
p1657
I5
sS'razor'
p1658
I1
sS'story'
p1659
I2
sS'leading'
p1660
I2
sS'swipe'
p1661
I2
sS'hangs'
p1662
I2
sS'paint'
p1663
I2
sS'flimsy'
p1664
I1
sS'wonderful'
p1665
I2
sS'passed'
p1666
I1
sS'ton'
p1667
I1
sS'hundred'
p1668
I1
sS'mobiles'
p1669
I6
sS'gps'
p1670
I16
sS'selling'
p1671
I9
sS'option'
p1672
I9
sS'relationship'
p1673
I2
sS'behind'
p1674
I3
sS'immediate'
p1675
I1
sS'tracking'
p1676
I7
sS'believe'
p1677
I10
sS'purposefully'
p1678
I2
sS'kind'
p1679
I12
sS'grew'
p1680
I1
sS'double'
p1681
I1
sS'grey'
p1682
I3
sS'recording'
p1683
I5
sS'stu'
p1684
I2
sS'familys'
p1685
I1
sS'store'
p1686
I24
sS'headache'
p1687
I7
sS'cleaner'
p1688
I1
sS'syncing'
p1689
I1
sS'alongside'
p1690
I1
sS'defect'
p1691
I7
sS'randomly'
p1692
I9
sS'cumbersome'
p1693
I2
sS'sell'
p1694
I20
sS'lie'
p1695
I4
sS'built'
p1696
I4
sS'zero'
p1697
I9
sS'trip'
p1698
I1
sS'self'
p1699
I7
sS'lit'
p1700
I3
sS'breeze'
p1701
I13
sS'useless'
p1702
I14
sS'obviously'
p1703
I6
sS'finding'
p1704
I2
sS'play'
p1705
I11
sS'towards'
p1706
I2
sS'warnings'
p1707
I2
sS'inconvenience'
p1708
I1
sS'reach'
p1709
I6
sS'serviced'
p1710
I3
sS'react'
p1711
I2
sS'experiences'
p1712
I1
sS'plan'
p1713
I19
sS'nothing'
p1714
I29
sS'extremely'
p1715
I14
sS'approved'
p1716
I2
sS'kb'
p1717
I2
sS'cause'
p1718
I12
sS'bug'
p1719
I5
sS'sturdy'
p1720
I2
sS'windows'
p1721
I46
sS'clear'
p1722
I12
sS'sometimes'
p1723
I17
sS'cover'
p1724
I5
sS'part'
p1725
I11
sS'clean'
p1726
I1
sS'justify'
p1727
I2
sS'microsoft'
p1728
I36
sS'lying'
p1729
I2
sS'fono'
p1730
I1
sS'ugh'
p1731
I2
sS'gold'
p1732
I2
sS'restore'
p1733
I2
sS'fone'
p1734
I3
sS'fine'
p1735
I23
sS'networks'
p1736
I5
sS'costing'
p1737
I1
sS'access'
p1738
I21
sS'giant'
p1739
I4
sS'consistently'
p1740
I2
sS'ruin'
p1741
I1
sS'rebooting'
p1742
I1
sS'unhappy'
p1743
I5
sS'starters'
p1744
I2
sS'failed'
p1745
I9
sS'pretty'
p1746
I19
sS'money'
p1747
I80
sS'circle'
p1748
I1
sS'accurate'
p1749
I1
sS'loved'
p1750
I9
sS'touchscreen'
p1751
I1
sS'hit'
p1752
I7
sS'cheaper'
p1753
I1
sS'blank'
p1754
I4
sS'valuable'
p1755
I1
sS'reply'
p1756
I2
sS'during'
p1757
I9
sS'banner'
p1758
I3
sS'emails'
p1759
I5
sS'restart'
p1760
I7
sS'audio'
p1761
I11
sS'resolve'
p1762
I6
sS'showed'
p1763
I4
sS'generally'
p1764
I2
sS'remove'
p1765
I6
sS'proclaim'
p1766
I8
sS'common'
p1767
I3
sS'gotten'
p1768
I3
sS'bulky'
p1769
I1
sS'bars'
p1770
I5
sS'set'
p1771
I27
sS'ser'
p1772
I2
sS'dump'
p1773
I1
sS'supporting'
p1774
I1
sS'ara'
p1775
I2
sS'individual'
p1776
I1
sS'dumb'
p1777
I1
sS'close'
p1778
I3
sS'arm'
p1779
I1
sS'repairs'
p1780
I3
sS'visiting'
p1781
I2
sS'pictures'
p1782
I26
sS'wow'
p1783
I4
sS'currently'
p1784
I2
sS'please'
p1785
I18
sS'crisp'
p1786
I2
sS'won'
p1787
I1
sS'various'
p1788
I1
sS'pc'
p1789
I6
sS'probably'
p1790
I13
sS'rite'
p1791
I2
sS'nope'
p1792
I5
sS'supposed'
p1793
I13
sS'knowing'
p1794
I3
sS'solo'
p1795
I2
sS'korea'
p1796
I2
sS'recently'
p1797
I10
sS'creating'
p1798
I1
sS'missing'
p1799
I4
sS'initially'
p1800
I5
sS'compr'
p1801
I2
sS'sold'
p1802
I11
sS'fgs'
p1803
I4
sS'blatant'
p1804
I2
sS'interface'
p1805
I5
sS'clueless'
p1806
I3
sS'pissed'
p1807
I1
sS'both'
p1808
I22
sS'toward'
p1809
I1
sS'last'
p1810
I25
sS'hesitant'
p1811
I1
sS'barely'
p1812
I6
sS'sensitive'
p1813
I4
sS'connection'
p1814
I10
sS'became'
p1815
I3
sS'megs'
p1816
I1
sS'alot'
p1817
I3
sS'whole'
p1818
I8
sS'upgraded'
p1819
I2
sS'liked'
p1820
I3
sS'reconsidered'
p1821
I2
sS'nextel'
p1822
I2
sS'point'
p1823
I6
sS'reasons'
p1824
I3
sS'whatever'
p1825
I10
sS'coincidence'
p1826
I2
sS'simply'
p1827
I14
sS'likes'
p1828
I3
sS'upgrades'
p1829
I1
sS'throughout'
p1830
I1
sS'expensive'
p1831
I4
sS'consuming'
p1832
I2
sS'cheapest'
p1833
I1
sS'described'
p1834
I3
sS'pt'
p1835
I2
sS'pu'
p1836
I3
sS'monthly'
p1837
I1
sS'create'
p1838
I5
sS'due'
p1839
I9
sS'wasnt'
p1840
I17
sS'dropping'
p1841
I3
sS'brick'
p1842
I2
sS'pl'
p1843
I3
sS'pm'
p1844
I1
sS'slips'
p1845
I1
sS'sending'
p1846
I15
sS'fire'
p1847
I1
sS'transferring'
p1848
I2
sS'great'
p1849
I52
sS'gap'
p1850
I1
sS'moment'
p1851
I1
sS'pricey'
p1852
I2
sS'understand'
p1853
I12
sS'representative'
p1854
I4
sS'demand'
p1855
I2
sS'compatable'
p1856
I3
sS'dialing'
p1857
I2
sS'handling'
p1858
I1
sS'solid'
p1859
I2
sS'straight'
p1860
I26
sS'bill'
p1861
I2
sS'budget'
p1862
I1
sS'admire'
p1863
I1
sS'producto'
p1864
I2
sS'while'
p1865
I35
sS'replaced'
p1866
I10
sS'pressed'
p1867
I3
sS'behavior'
p1868
I2
sS'error'
p1869
I7
sS'fun'
p1870
I2
sS'guide'
p1871
I3
sS'theres'
p1872
I12
sS'pound'
p1873
I1
sS'hoping'
p1874
I6
sS'calculator'
p1875
I2
sS'rip'
p1876
I6
sS'encountered'
p1877
I7
sS'disappointing'
p1878
I5
sS'itself'
p1879
I24
sS'beautifully'
p1880
I1
sS'ready'
p1881
I6
sS'rid'
p1882
I2
sS'pantech'
p1883
I16
sS'centura'
p1884
I4
sS'funny'
p1885
I2
sS'anymore'
p1886
I14
sS'interaction'
p1887
I1
sS'advise'
p1888
I6
sS'daughters'
p1889
I2
sS'higher'
p1890
I3
sS'development'
p1891
I1
sS'arrives'
p1892
I1
sS'temporary'
p1893
I1
sS'keys'
p1894
I6
sS'painless'
p1895
I1
sS'yesterday'
p1896
I4
sS'viewing'
p1897
I1
sS'walmart'
p1898
I2
sS'uses'
p1899
I5
sS'purpose'
p1900
I1
sS'robust'
p1901
I1
sS'plugs'
p1902
I3
sS'wheres'
p1903
I2
sS'recent'
p1904
I2
sS'lower'
p1905
I2
sS'older'
p1906
I7
sS'poland'
p1907
I2
sS'spent'
p1908
I13
sS'without'
p1909
I39
sS'person'
p1910
I14
sS'priced'
p1911
I3
sS'edge'
p1912
I2
sS'savvy'
p1913
I1
sS'entry'
p1914
I4
sS'gsm'
p1915
I8
sS'stating'
p1916
I4
sS'sims'
p1917
I2
sS'things'
p1918
I25
sS'mom'
p1919
I1
sS'competitive'
p1920
I1
sS'imei'
p1921
I4
sS'shape'
p1922
I1
sS'questions'
p1923
I6
sS'world'
p1924
I6
sS'regardless'
p1925
I1
sS'apple'
p1926
I11
sS'letting'
p1927
I2
sS'cut'
p1928
I8
sS'tablet'
p1929
I2
sS'source'
p1930
I2
sS'internal'
p1931
I13
sS'parents'
p1932
I3
sS'location'
p1933
I7
sS'input'
p1934
I5
sS'remaining'
p1935
I1
sS'surprised'
p1936
I4
sS'build'
p1937
I4
sS'complaint'
p1938
I4
sS'march'
p1939
I4
sS'emergency'
p1940
I4
sS'format'
p1941
I1
sS'big'
p1942
I17
sS'couple'
p1943
I14
sS'unlimited'
p1944
I5
sS'game'
p1945
I3
sS'motorola'
p1946
I9
sS'damage'
p1947
I6
sS'bit'
p1948
I5
sS'helpful'
p1949
I6
sS'knock'
p1950
I3
sS'outright'
p1951
I1
sS'rotate'
p1952
I3
sS'lost'
p1953
I15
sS'signal'
p1954
I15
sS'ignore'
p1955
I1
sS'communications'
p1956
I2
sS'continue'
p1957
I3
sS'indication'
p1958
I3
sS'popular'
p1959
I1
sS'stylish'
p1960
I1
sS'love'
p1961
I15
sS'google'
p1962
I24
sS'often'
p1963
I3
sS'absolutely'
p1964
I9
sS'arrived'
p1965
I7
sS'experienced'
p1966
I4
sS'palm'
p1967
I5
sS'pricing'
p1968
I2
sS'sprint'
p1969
I7
sS'delivered'
p1970
I3
sS'scale'
p1971
I1
sS'contacts'
p1972
I15
sS'affects'
p1973
I3
sS'decision'
p1974
I4
sS'pros'
p1975
I7
sS'integration'
p1976
I1
sS'per'
p1977
I7
sS'seller'
p1978
I74
sS'pen'
p1979
I3
sS'eliminate'
p1980
I1
sS'blackberry'
p1981
I6
sS'run'
p1982
I10
sS'bc'
p1983
I2
sS'booklet'
p1984
I2
sS'processing'
p1985
I1
sS'costumer'
p1986
I2
sS'bi'
p1987
I1
sS'refused'
p1988
I8
sS'step'
p1989
I2
sS'nowhere'
p1990
I3
sS'oem'
p1991
I1
sS'refuses'
p1992
I5
sS'unused'
p1993
I2
sS'changing'
p1994
I2
sS'caja'
p1995
I2
sS'wouldnt'
p1996
I25
sS'netflix'
p1997
I4
sS'ids'
p1998
I1
sS'hinge'
p1999
I2
sS'range'
p2000
I7
sS'idk'
p2001
I3
sS'messaging'
p2002
I7
sS'wanna'
p2003
I3
sS'block'
p2004
I5
sS'seeing'
p2005
I4
sS'plenty'
p2006
I2
sS'garbage'
p2007
I7
sS'within'
p2008
I15
sS'retailer'
p2009
I5
sS'services'
p2010
I8
sS'troubleshooting'
p2011
I2
sS'primarily'
p2012
I2
sS'impressed'
p2013
I2
sS'forth'
p2014
I3
sS'few'
p2015
I36
sS'spending'
p2016
I3
sS'question'
p2017
I4
sS'specifically'
p2018
I3
sS'custom'
p2019
I1
sS'ordered'
p2020
I23
sS'doubt'
p2021
I3
sS'forward'
p2022
I3
sS'scared'
p2023
I1
sS'opens'
p2024
I2
sS'manufacture'
p2025
I1
sS'elsewhere'
p2026
I2
sS'sds'
p2027
I2
sS'registered'
p2028
I1
sS'specialty'
p2029
I2
sS'hoped'
p2030
I1
sS'properly'
p2031
I16
sS'link'
p2032
I2
sS'repeatedly'
p2033
I3
sS'filed'
p2034
I3
sS'line'
p2035
I10
sS'posted'
p2036
I3
sS'directed'
p2037
I2
sS'restarted'
p2038
I2
sS'sounds'
p2039
I3
sS'caller'
p2040
I2
sS'ur'
p2041
I4
sS'um'
p2042
I2
sS'mobile'
p2043
I78
sS'un'
p2044
I1
sS'customers'
p2045
I11
sS'uk'
p2046
I30
sS'similar'
p2047
I5
sS'called'
p2048
I38
sS'natively'
p2049
I1
sS'stick'
p2050
I5
sS'single'
p2051
I7
sS'warning'
p2052
I8
sS'chat'
p2053
I3
sS'denying'
p2054
I2
sS'codes'
p2055
I3
sS'lemon'
p2056
I2
sS'fixing'
p2057
I3
sS'buck'
p2058
I2
sS'tare'
p2059
I2
sS'plugged'
p2060
I2
sS'afford'
p2061
I7
sS'points'
p2062
I3
sS'functionality'
p2063
I1
sS'nice'
p2064
I30
sS'users'
p2065
I3
sS'problems'
p2066
I39
sS'prepared'
p2067
I3
sS'replace'
p2068
I18
sS'allowing'
p2069
I2
sS'utterly'
p2070
I1
sS'song'
p2071
I6
sS'samsungs'
p2072
I1
sS'earphones'
p2073
I2
sS'ago'
p2074
I20
sS'suffers'
p2075
I1
sS'age'
p2076
I5
sS'required'
p2077
I1
sS'youtube'
p2078
I7
sS'walked'
p2079
I2
sS'requires'
p2080
I4
sS'sounded'
p2081
I2
sS'once'
p2082
I19
sS'code'
p2083
I8
sS'gs'
p2084
I2
sS'scratch'
p2085
I1
sS'existing'
p2086
I5
sS'gb'
p2087
I32
sS'issues'
p2088
I26
sS'seemed'
p2089
I9
sS'compact'
p2090
I1
sS'cheapy'
p2091
I1
sS'concerned'
p2092
I1
sS'young'
p2093
I1
sS'send'
p2094
I41
sS'languages'
p2095
I1
sS'helps'
p2096
I2
sS'suite'
p2097
I1
sS'dislike'
p2098
I1
sS'include'
p2099
I4
sS'friendly'
p2100
I3
sS'indicating'
p2101
I1
sS'uploaded'
p2102
I1
sS'random'
p2103
I7
sS'tracfone'
p2104
I4
sS'presently'
p2105
I1
sS'listed'
p2106
I4
sS'facebook'
p2107
I5
sS'cellular'
p2108
I8
sS'esn'
p2109
I2
sS'telling'
p2110
I4
sS'arrange'
p2111
I3
sS'entire'
p2112
I4
sS'meant'
p2113
I1
sS'button'
p2114
I31
sS'shock'
p2115
I4
sS'colors'
p2116
I2
sS'deals'
p2117
I5
sS'blurry'
p2118
I3
sS'havent'
p2119
I9
sS'deleting'
p2120
I3
sS'noted'
p2121
I4
sS'solutions'
p2122
I2
sS'unsatisfied'
p2123
I3
sS'smaller'
p2124
I3
sS'ripped'
p2125
I3
sS'jump'
p2126
I2
sS'video'
p2127
I16
sS'traveling'
p2128
I3
sS'picked'
p2129
I1
sS'expense'
p2130
I1
sS'download'
p2131
I33
sS'odd'
p2132
I3
sS'click'
p2133
I6
sS'plays'
p2134
I4
sS'unavailable'
p2135
I1
sS'giving'
p2136
I9
sS'find'
p2137
I39
sS'cell'
p2138
I43
sS'paying'
p2139
I2
sS'waiting'
p2140
I10
sS'led'
p2141
I8
sS'chose'
p2142
I3
sS'leg'
p2143
I3
sS'mic'
p2144
I3
sS'let'
p2145
I19
sS'others'
p2146
I10
sS'clicked'
p2147
I2
sS'convert'
p2148
I1
sS'casing'
p2149
I2
sS'metro'
p2150
I1
sS'technical'
p2151
I6
sS'larger'
p2152
I1
sS'leaving'
p2153
I7
sS'products'
p2154
I16
sS'opinion'
p2155
I2
sS'makes'
p2156
I15
sS'writes'
p2157
I2
sS'thats'
p2158
I29
sS'addresses'
p2159
I1
sS'claim'
p2160
I14
sS'win'
p2161
I2
sS'app'
p2162
I38
sS'manage'
p2163
I3
sS'private'
p2164
I2
sS'wit'
p2165
I1
sS'apn'
p2166
I1
sS'apply'
p2167
I1
sS'resets'
p2168
I2
sS'cloud'
p2169
I2
sS'standing'
p2170
I2
sS'fed'
p2171
I2
sS'fee'
p2172
I12
sS'crap'
p2173
I19
sS'usb'
p2174
I14
sS'usa'
p2175
I26
sS'remains'
p2176
I2
sS'next'
p2177
I15
sS'amazons'
p2178
I6
sS'camera'
p2179
I46
sS'celphone'
p2180
I2
sS'chip'
p2181
I6
sS'sort'
p2182
I1
sS'popped'
p2183
I1
sS'removable'
p2184
I1
sS'started'
p2185
I24
sS'becomes'
p2186
I2
sS'antennas'
p2187
I1
sS'gladly'
p2188
I2
sS'iii'
p2189
I8
sS'customer'
p2190
I77
sS'account'
p2191
I23
sS'locks'
p2192
I1
sS'package'
p2193
I9
sS'prompts'
p2194
I1
sS'anywhere'
p2195
I7
sS'meet'
p2196
I4
sS'closing'
p2197
I1
sS'unread'
p2198
I1
sS'didnt'
p2199
I67
sS'proof'
p2200
I1
sS'control'
p2201
I6
sS'proprietary'
p2202
I1
sS'slip'
p2203
I2
sS'process'
p2204
I8
sS'lock'
p2205
I8
sS'slim'
p2206
I1
sS'tax'
p2207
I1
sS'pieces'
p2208
I1
sS'high'
p2209
I10
sS'tag'
p2210
I1
sS'bend'
p2211
I1
sS'tab'
p2212
I2
sS'tan'
p2213
I2
sS'expandable'
p2214
I2
sS'united'
p2215
I2
sS'syndrome'
p2216
I3
sS'defective'
p2217
I18
sS'lame'
p2218
I1
sS'holds'
p2219
I2
sS'numerous'
p2220
I3
sS'tronic'
p2221
I2
sS'attachment'
p2222
I2
sS'instead'
p2223
I11
sS'sim'
p2224
I82
sS'stock'
p2225
I8
sS'watch'
p2226
I5
sS'abuse'
p2227
I5
sS'fits'
p2228
I1
sS'ties'
p2229
I1
sS'tmobiles'
p2230
I1
sS'geek'
p2231
I4
sS'realized'
p2232
I3
sS'os'
p2233
I16
sS'bing'
p2234
I2
sS'lines'
p2235
I2
sS'amazon'
p2236
I96
sS'honestly'
p2237
I2
sS'allow'
p2238
I11
sS'furious'
p2239
I1
sS'ha'
p2240
I8
sS'six'
p2241
I4
sS'despite'
p2242
I4
sS'including'
p2243
I2
sS'looks'
p2244
I15
sS'mentioned'
p2245
I1
sS'galaxy'
p2246
I37
sS'bunch'
p2247
I4
sS'perfect'
p2248
I13
sS'lounge'
p2249
I2
sS'le'
p2250
I7
sS'la'
p2251
I5
sS'lo'
p2252
I5
sS'li'
p2253
I1
sS'lt'
p2254
I1
sS'lu'
p2255
I1
sS'choose'
p2256
I3
sS'orange'
p2257
I4
sS'covered'
p2258
I4
sS'holiday'
p2259
I2
sS'pixel'
p2260
I1
sS'dad'
p2261
I2
sS'crash'
p2262
I1
sS'pure'
p2263
I3
sS'docs'
p2264
I2
sS'nada'
p2265
I2
sS'nokia'
p2266
I62
sS'mediocre'
p2267
I1
sS'mention'
p2268
I6
sS'cutting'
p2269
I2
sS'hands'
p2270
I5
sS'front'
p2271
I16
sS'rotation'
p2272
I1
sS'handy'
p2273
I1
sS'tmobile'
p2274
I13
sS'edit'
p2275
I2
sS'warned'
p2276
I4
sS'slide'
p2277
I1
sS'weather'
p2278
I2
sS'fiddle'
p2279
I1
sS'mode'
p2280
I20
sS'truth'
p2281
I1
sS'crossing'
p2282
I1
sS'activate'
p2283
I15
sS'attachments'
p2284
I1
sS'doing'
p2285
I6
sS'programmed'
p2286
I3
sS'staying'
p2287
I1
sS'related'
p2288
I3
sS'bluetooth'
p2289
I8
sS'books'
p2290
I1
sS'static'
p2291
I2
sS'almacenamiento'
p2292
I2
sS'special'
p2293
I2
sS'respects'
p2294
I1
sS'bag'
p2295
I1
sS'rep'
p2296
I7
sS'develop'
p2297
I1
sS'reboot'
p2298
I4
sS'upset'
p2299
I4
sS'performs'
p2300
I1
sS'max'
p2301
I3
sS'electronics'
p2302
I4
sS'supports'
p2303
I2
sS'integrated'
p2304
I1
sS'red'
p2305
I7
sS'shut'
p2306
I10
sS'dictionary'
p2307
I3
sS'completely'
p2308
I19
sS'ect'
p2309
I1
sS'que'
p2310
I5
sS'latest'
p2311
I2
sS'business'
p2312
I7
sS'backwards'
p2313
I3
sS'steal'
p2314
I1
sS'route'
p2315
I1
sS'hes'
p2316
I1
sS'put'
p2317
I30
sS'keep'
p2318
I23
sS'conversation'
p2319
I4
sS'lte'
p2320
I2
sS'removing'
p2321
I3
sS'retail'
p2322
I2
sS'south'
p2323
I7
sS'mad'
p2324
I5
sS'soldered'
p2325
I2
sS'scene'
p2326
I1
sS'owned'
p2327
I4
sS'lagging'
p2328
I1
sS'owner'
p2329
I2
sS'reached'
p2330
I3
sS'noticed'
p2331
I6
sS'quality'
p2332
I34
sS'reliable'
p2333
I3
sS'owning'
p2334
I3
sS'miserably'
p2335
I1
sS'sadly'
p2336
I3
sS'reference'
p2337
I1
sS'privacy'
p2338
I3
sS'ordering'
p2339
I7
sS'guys'
p2340
I3
sS'system'
p2341
I18
sS'developer'
p2342
I1
sS'perfectly'
p2343
I2
sS'final'
p2344
I2
sS'sealed'
p2345
I1
sS'acquire'
p2346
I3
sS'lists'
p2347
I1
sS'slider'
p2348
I1
sS'july'
p2349
I4
sS'updating'
p2350
I1
sS'waist'
p2351
I2
sS'unexpectedly'
p2352
I3
sS'boring'
p2353
I2
sS'bother'
p2354
I4
sS'bed'
p2355
I1
sS'limiting'
p2356
I1
sS'moto'
p2357
I1
sS'loves'
p2358
I1
sS'light'
p2359
I12
sS'ber'
p2360
I2
sS'bet'
p2361
I1
sS'capabilities'
p2362
I2
sS'false'
p2363
I7
sS'comfortable'
p2364
I1
sS'sen'
p2365
I2
sS'need'
p2366
I36
sS'facing'
p2367
I2
sS'turn'
p2368
I43
sS'apparently'
p2369
I18
sS'linked'
p2370
I2
sS'viewed'
p2371
I2
sS'microphone'
p2372
I3
sS'afraid'
p2373
I1
sS'min'
p2374
I2
sS'bough'
p2375
I1
sS'able'
p2376
I27
sS'si'
p2377
I3
sS'purchasing'
p2378
I12
sS'mix'
p2379
I2
sS'subject'
p2380
I2
sS'brand'
p2381
I18
sS'progressively'
p2382
I2
sS'worldwide'
p2383
I5
sS'unless'
p2384
I22
sS'connected'
p2385
I2
sS'cracking'
p2386
I1
sS'device'
p2387
I41
sS'expired'
p2388
I2
sS'payment'
p2389
I4
sS'cellphone'
p2390
I7
sS'barebones'
p2391
I2
sS'nobody'
p2392
I5
sS'stronger'
p2393
I1
sS'face'
p2394
I7
sS'looked'
p2395
I11
sS'callers'
p2396
I3
sS'se'
p2397
I3
sS'normally'
p2398
I3
sS'fact'
p2399
I9
sS'selection'
p2400
I6
sS'text'
p2401
I29
sS'supported'
p2402
I3
sS'anyway'
p2403
I5
sS'connect'
p2404
I21
sS'bring'
p2405
I1
sS'planning'
p2406
I3
sS'tryed'
p2407
I3
sS'utter'
p2408
I2
sS'pleased'
p2409
I2
sS'staff'
p2410
I1
sS'pause'
p2411
I3
sS'based'
p2412
I4
sS'knowledge'
p2413
I1
sS'controls'
p2414
I1
sS'should'
p2415
I44
sS'buttons'
p2416
I23
sS'score'
p2417
I1
sS'local'
p2418
I8
sS'interested'
p2419
I2
sS'inferior'
p2420
I2
sS'finger'
p2421
I2
sS'regularly'
p2422
I2
sS'hassles'
p2423
I2
sS'move'
p2424
I5
sS'handle'
p2425
I4
sS'watching'
p2426
I3
sS'beat'
p2427
I1
sS'backlight'
p2428
I1
sS'overall'
p2429
I8
sS'lucky'
p2430
I2
sS'ones'
p2431
I7
sS'stars'
p2432
I11
sS'words'
p2433
I7
sS'werent'
p2434
I2
sS'buyer'
p2435
I12
sS'chips'
p2436
I3
sS'areas'
p2437
I1
sS'gray'
p2438
I2
sS'ended'
p2439
I9
sS'conditions'
p2440
I1
sS'fixes'
p2441
I3
sS'calling'
p2442
I23
sS'stuff'
p2443
I5
sS'cr'
p2444
I2
sS'fixed'
p2445
I8
sS'view'
p2446
I5
sS'guessing'
p2447
I2
sS'btw'
p2448
I2
sS'exists'
p2449
I3
sS'frame'
p2450
I1
sS'freeze'
p2451
I5
sS'computer'
p2452
I5
sS'packed'
p2453
I2
sS'gmail'
p2454
I1
sS'placed'
p2455
I5
sS'pattern'
p2456
I2
sS'nightmare'
p2457
I5
sS'tend'
p2458
I1
sS'favor'
p2459
I4
sS'written'
p2460
I2
sS'difficulties'
p2461
I1
sS'correctly'
p2462
I7
sS'horrible'
p2463
I18
sS'progress'
p2464
I1
sS'neither'
p2465
I2
sS'youll'
p2466
I10
sS'email'
p2467
I28
sS'bought'
p2468
I88
sS'ends'
p2469
I2
sS'ability'
p2470
I2
sS'lg'
p2471
I6
sS'weak'
p2472
I4
sS'deliver'
p2473
I1
sS'job'
p2474
I6
sS'key'
p2475
I8
sS'synced'
p2476
I1
sS'configuration'
p2477
I3
sS'legit'
p2478
I3
sS'monitor'
p2479
I1
sS'figured'
p2480
I1
sS'limits'
p2481
I1
sS'joke'
p2482
I5
sS'taking'
p2483
I11
sS'april'
p2484
I8
sS'admit'
p2485
I2
sS'otherwise'
p2486
I3
sS'comment'
p2487
I2
sS'detailed'
p2488
I2
sS'ci'
p2489
I9
sS'co'
p2490
I2
sS'toilet'
p2491
I1
sS'wall'
p2492
I4
sS'ca'
p2493
I5
sS'cf'
p2494
I2
sS'walk'
p2495
I5
sS'packaging'
p2496
I5
sS'cs'
p2497
I3
sS'respect'
p2498
I1
sS'cu'
p2499
I1
sS'quit'
p2500
I1
sS'protective'
p2501
I1
sS'powered'
p2502
I2
sS'addition'
p2503
I2
sS'decent'
p2504
I11
sS'bbb'
p2505
I3
sS'cent'
p2506
I2
sS'willing'
p2507
I3
sS'slowly'
p2508
I2
sS'ah'
p2509
I2
sS'waste'
p2510
I26
sS'penny'
p2511
I1
sS'verizon'
p2512
I52
sS'crappy'
p2513
I4
sS'finished'
p2514
I2
sS'angles'
p2515
I1
sS'bull'
p2516
I2
sS'kicks'
p2517
I1
sS'garmin'
p2518
I1
sS'present'
p2519
I2
sS'smartphones'
p2520
I3
sS'external'
p2521
I3
sS'plain'
p2522
I1
sS'nd'
p2523
I3
sS'appearance'
p2524
I2
sS'value'
p2525
I2
sS'choices'
p2526
I2
sS'reliability'
p2527
I3
sS'fault'
p2528
I7
sS'instantly'
p2529
I1
sS'frustrating'
p2530
I5
sS'adapter'
p2531
I3
sS'diverts'
p2532
I2
sS've'
p2533
I1
sS'manually'
p2534
I2
sS'almost'
p2535
I23
sS'thus'
p2536
I2
sS'site'
p2537
I6
sS'helped'
p2538
I1
sS'vs'
p2539
I2
sS'dual'
p2540
I8
sS'claimed'
p2541
I2
sS'bucks'
p2542
I5
sS'greater'
p2543
I1
sS'productivity'
p2544
I1
sS'generic'
p2545
I7
sS'began'
p2546
I3
sS'parts'
p2547
I4
sS'speaker'
p2548
I20
sS'auto'
p2549
I4
sS'party'
p2550
I8
sS'android'
p2551
I38
sS'gets'
p2552
I16
sS'planned'
p2553
I3
sS'cellphones'
p2554
I2
sS'pharos'
p2555
I4
sS'ios'
p2556
I3
sS'effect'
p2557
I4
sS'ion'
p2558
I1
sS'frequently'
p2559
I4
sS'transaction'
p2560
I2
sS'off'
p2561
I98
sS'center'
p2562
I11
sS'colour'
p2563
I2
sS'thought'
p2564
I18
sS'command'
p2565
I2
sS'english'
p2566
I5
sS'position'
p2567
I1
sS'breaker'
p2568
I6
sS'usual'
p2569
I2
sS'rocker'
p2570
I1
sS'load'
p2571
I9
sS'stores'
p2572
I2
sS'less'
p2573
I28
sS'claiming'
p2574
I2
sS'proximity'
p2575
I2
sS'sources'
p2576
I1
sS'batteries'
p2577
I2
sS'stored'
p2578
I3
sS'advertised'
p2579
I6
sS'tough'
p2580
I2
sS'rest'
p2581
I3
sS'web'
p2582
I8
sS'rapid'
p2583
I2
sS'ads'
p2584
I1
sS'podcast'
p2585
I1
sS'bell'
p2586
I2
sS'microsd'
p2587
I1
sS'transparent'
p2588
I1
sS'simple'
p2589
I10
sS'add'
p2590
I9
sS'wep'
p2591
I2
sS'attractive'
p2592
I1
sS'wet'
p2593
I2
sS'usage'
p2594
I7
sS'ado'
p2595
I3
sS'smart'
p2596
I14
sS'identical'
p2597
I1
sS'advertising'
p2598
I2
sS'moble'
p2599
I3
sS'checking'
p2600
I1
sS'effortless'
p2601
I1
sS'five'
p2602
I5
sS'know'
p2603
I66
sS'desk'
p2604
I2
sS'press'
p2605
I11
sS'immediately'
p2606
I10
sS'password'
p2607
I6
sS'toe'
p2608
I1
sS'insert'
p2609
I3
sS'forcing'
p2610
I2
sS'necessary'
p2611
I1
sS'like'
p2612
I115
sS'success'
p2613
I1
sS'ring'
p2614
I13
sS'ostia'
p2615
I3
sS'lose'
p2616
I3
sS'become'
p2617
I2
sS'works'
p2618
I34
sS'soft'
p2619
I4
sS'page'
p2620
I4
sS'replacement'
p2621
I36
sS'jan'
p2622
I6
sS'twitter'
p2623
I1
sS'searching'
p2624
I3
sS'home'
p2625
I12
sS'liking'
p2626
I1
sS'recognition'
p2627
I6
sS'happens'
p2628
I3
sS'literally'
p2629
I9
sS'avoid'
p2630
I6
sS'slipping'
p2631
I1
sS'does'
p2632
I91
sS'economical'
p2633
I1
sS'assuming'
p2634
I1
sS'screwed'
p2635
I3
sS'capability'
p2636
I3
sS'iphones'
p2637
I3
sS'discription'
p2638
I2
sS'locate'
p2639
I2
sS'says'
p2640
I20
sS'selecting'
p2641
I2
sS'worthless'
p2642
I3
sS'although'
p2643
I7
sS'worthy'
p2644
I2
sS'periodically'
p2645
I1
sS'sister'
p2646
I6
sS'actual'
p2647
I5
sS'extension'
p2648
I2
sS'getting'
p2649
I35
sS'upgradeable'
p2650
I2
sS'recognized'
p2651
I1
sS'surge'
p2652
I2
sS'compatible'
p2653
I8
sS'carries'
p2654
I2
sS'swear'
p2655
I2
sS'introduced'
p2656
I1
sS'software'
p2657
I29
sS'warranty'
p2658
I43
sS'own'
p2659
I22
sS'kinda'
p2660
I3
sS'keeps'
p2661
I10
sS'previously'
p2662
I2
sS'functional'
p2663
I2
sS'headphone'
p2664
I6
sS'brands'
p2665
I1
sS'square'
p2666
I1
sS'tiny'
p2667
I3
sS'theyd'
p2668
I1
sS'couldnt'
p2669
I32
sS'mere'
p2670
I2
sS'postal'
p2671
I2
sS'additional'
p2672
I1
sS'whom'
p2673
I2
sS'transfer'
p2674
I4
sS'apps'
p2675
I88
sS'protectors'
p2676
I2
sS'spread'
p2677
I1
sS'frustration'
p2678
I5
sS'biggest'
p2679
I3
sS'detrimental'
p2680
I1
sS'yrs'
p2681
I1
sS'function'
p2682
I7
sS'buy'
p2683
I110
sS'hr'
p2684
I1
sS'hp'
p2685
I2
sS'hq'
p2686
I4
sS'delivery'
p2687
I2
sS'hi'
p2688
I2
sS'automated'
p2689
I3
sS'editing'
p2690
I1
sS'intrusive'
p2691
I1
sS'hd'
p2692
I2
sS'made'
p2693
I28
sS'places'
p2694
I1
sS'whether'
p2695
I4
sS'wish'
p2696
I13
sS'scroll'
p2697
I1
sS'smooth'
p2698
I2
sS'flip'
p2699
I6
sS'record'
p2700
I8
sS'below'
p2701
I5
sS'limit'
p2702
I1
sS'problem'
p2703
I71
sS'piece'
p2704
I31
sS'minutes'
p2705
I22
sS'display'
p2706
I4
sS'replying'
p2707
I1
sS'pin'
p2708
I4
sS'recognize'
p2709
I6
sS'handset'
p2710
I1
sS'pic'
p2711
I2
sS'worse'
p2712
I27
sS'inc'
p2713
I1
sS'functions'
p2714
I7
sS'compared'
p2715
I4
sS'boot'
p2716
I3
sS'detail'
p2717
I1
sS'lately'
p2718
I1
sS'book'
p2719
I3
sS'details'
p2720
I1
sS'incredibly'
p2721
I1
sS'contacting'
p2722
I2
sS'conclusion'
p2723
I1
sS'junk'
p2724
I16
sS'repeat'
p2725
I2
sS'kinds'
p2726
I1
sS'june'
p2727
I2
sS'stay'
p2728
I8
sS'chance'
p2729
I5
sS'additionally'
p2730
I1
sS'else'
p2731
I20
sS'friends'
p2732
I4
sS'yelp'
p2733
I1
sS'samsung'
p2734
I124
sS'starting'
p2735
I3
sS'lasted'
p2736
I6
sS'extras'
p2737
I1
sS'status'
p2738
I2
stp2739
Rp2740
sS'positive_bigram_count'
p2741
g6
((dp2742
S'windows,phone'
p2743
I177
sS'buy,phone'
p2744
I10
sS'phone,still'
p2745
I10
sS'app,store'
p2746
I24
sS'recommend,phone'
p2747
I31
sS'works,great'
p2748
I34
sS'very,fast'
p2749
I21
sS'has,been'
p2750
I21
sS'user,friendly'
p2751
I14
sS'not,buy'
p2752
I4
sS'phone,not'
p2753
I26
sS'got,phone'
p2754
I12
sS'customer,service'
p2755
I6
sS'no,contract'
p2756
I22
sS'great,price'
p2757
I23
sS'phone,itself'
p2758
I9
sS'does,not'
p2759
I49
sS'phone,price'
p2760
I30
sS'phone,very'
p2761
I14
sS'good,phone'
p2762
I34
sS'not,good'
p2763
I4
sS'im,not'
p2764
I21
sS'nice,phone'
p2765
I12
sS'micro,sd'
p2766
I21
sS'old,phone'
p2767
I13
sS'facing,camera'
p2768
I24
sS'has,no'
p2769
I5
sS'price,point'
p2770
I16
sS'new,phone'
p2771
I20
sS'phone,great'
p2772
I27
sS'stopped,working'
p2773
I1
sS'received,phone'
p2774
I6
sS'sd,card'
p2775
I37
sS'more,expensive'
p2776
I18
sS'like,phone'
p2777
I26
sS'phone,doesnt'
p2778
I7
sS'much,better'
p2779
I22
sS'very,happy'
p2780
I22
sS'ive,had'
p2781
I23
sS'samsung,galaxy'
p2782
I22
sS'data,plan'
p2783
I18
sS'im,very'
p2784
I9
sS'phone,bought'
p2785
I10
sS'android,phones'
p2786
I29
sS'really,like'
p2787
I23
sS'front,camera'
p2788
I19
sS'cell,phone'
p2789
I11
sS'did,not'
p2790
I18
sS'purchased,phone'
p2791
I10
sS'brand,new'
p2792
I6
sS'smart,phones'
p2793
I24
sS'wifi,calling'
p2794
I49
sS'windows,phones'
p2795
I24
sS'windows,os'
p2796
I19
sS'phone,works'
p2797
I13
sS'no,problems'
p2798
I11
sS'very,easy'
p2799
I19
sS'very,good'
p2800
I31
sS'flash,camera'
p2801
I15
sS'great,phone'
p2802
I54
sS'bought,phone'
p2803
I23
sS'very,nice'
p2804
I15
sS'touch,screen'
p2805
I19
sS'phone,phone'
p2806
I17
sS'straight,talk'
p2807
I11
sS'battery,life'
p2808
I61
sS'no,front'
p2809
I17
sS'phone,like'
p2810
I10
sS'smart,phone'
p2811
I86
sS'phone,no'
p2812
I17
sS'no,flash'
p2813
I39
sS'operating,system'
p2814
I14
sS'phone,has'
p2815
I47
sS'had,phone'
p2816
I17
sS'really,good'
p2817
I18
sS'waste,money'
p2818
I1
sS'very,disappointed'
p2819
I1
sS'front,facing'
p2820
I21
sS'dont,know'
p2821
I10
sS'nokia,lumia'
p2822
I51
sS'phone,had'
p2823
I11
sS'love,phone'
p2824
I37
sS'been,using'
p2825
I16
sS'no,longer'
p2826
I6
sS'not,phone'
p2827
I13
sS'high,end'
p2828
I22
sS'phone,dont'
p2829
I17
sS'android,phone'
p2830
I24
sS'phone,really'
p2831
I15
sS'not,sure'
p2832
I11
sS'using,phone'
p2833
I12
sS'build,quality'
p2834
I14
sS'highly,recommend'
p2835
I17
sS'phone,does'
p2836
I25
sS'phone,im'
p2837
I14
sS'another,phone'
p2838
I5
sS'sim,card'
p2839
I50
sS'phone,calls'
p2840
I16
stp2841
Rp2842
sS'negative_bigram_count'
p2843
g6
((dp2844
S'waste,money'
p2845
I17
sS'windows,phone'
p2846
I14
sS'buy,phone'
p2847
I20
sS'app,store'
p2848
I4
sS'recommend,phone'
p2849
I8
sS'works,great'
p2850
I1
sS'very,fast'
p2851
I2
sS'has,been'
p2852
I10
sS'user,friendly'
p2853
I2
sS'not,buy'
p2854
I34
sS'phone,not'
p2855
I62
sS'new,phone'
p2856
I28
sS'customer,service'
p2857
I48
sS'no,contract'
p2858
I3
sS'phone,itself'
p2859
I11
sS'does,not'
p2860
I73
sS'phone,price'
p2861
I5
sS'phone,very'
p2862
I9
sS'good,phone'
p2863
I11
sS'not,good'
p2864
I20
sS'touch,screen'
p2865
I9
sS'nice,phone'
p2866
I6
sS'galaxy,note'
p2867
I16
sS'micro,sd'
p2868
I1
sS'old,phone'
p2869
I4
sS'facing,camera'
p2870
I1
sS'has,no'
p2871
I12
sS'im,not'
p2872
I15
sS'price,point'
p2873
I1
sS'got,phone'
p2874
I20
sS'ive,had'
p2875
I11
sS'stopped,working'
p2876
I21
sS'received,phone'
p2877
I13
sS'sd,card'
p2878
I18
sS'more,expensive'
p2879
I2
sS'like,phone'
p2880
I10
sS'phone,doesnt'
p2881
I10
sS'phone,no'
p2882
I9
sS'much,better'
p2883
I1
sS'very,happy'
p2884
I2
sS'samsung,galaxy'
p2885
I19
sS'data,plan'
p2886
I6
sS'im,very'
p2887
I7
sS'phone,bought'
p2888
I9
sS'really,like'
p2889
I1
sS'front,camera'
p2890
I5
sS'cell,phone'
p2891
I24
sS'did,not'
p2892
I56
sS'purchased,phone'
p2893
I18
sS'brand,new'
p2894
I11
sS'smart,phones'
p2895
I3
sS'wifi,calling'
p2896
I9
sS'not,recommend'
p2897
I23
sS'windows,os'
p2898
I1
sS'phone,works'
p2899
I7
sS'no,problems'
p2900
I6
sS'very,good'
p2901
I3
sS'flash,camera'
p2902
I2
sS'great,phone'
p2903
I9
sS'bought,phone'
p2904
I27
sS'very,nice'
p2905
I4
sS'phone,phone'
p2906
I8
sS'straight,talk'
p2907
I23
sS'battery,life'
p2908
I12
sS'no,front'
p2909
I1
sS'phone,like'
p2910
I6
sS'smart,phone'
p2911
I7
sS'love,phone'
p2912
I6
sS'no,flash'
p2913
I2
sS'operating,system'
p2914
I7
sS'phone,has'
p2915
I27
sS'had,phone'
p2916
I23
sS'phone,still'
p2917
I12
sS'very,disappointed'
p2918
I23
sS'dont,know'
p2919
I13
sS'nokia,lumia'
p2920
I9
sS'phone,had'
p2921
I23
sS'been,using'
p2922
I2
sS'no,longer'
p2923
I10
sS'not,phone'
p2924
I5
sS'high,end'
p2925
I2
sS'phone,dont'
p2926
I9
sS'android,phone'
p2927
I6
sS'phone,really'
p2928
I2
sS'not,sure'
p2929
I9
sS'using,phone'
p2930
I11
sS'phone,great'
p2931
I3
sS'build,quality'
p2932
I2
sS'highly,recommend'
p2933
I1
sS'phone,does'
p2934
I14
sS'phone,im'
p2935
I6
sS'another,phone'
p2936
I14
sS'sim,card'
p2937
I47
sS'phone,calls'
p2938
I10
stp2939
Rp2940
sS'pos_bigram_corpus_length'
p2941
I2150
sS'bigram_vocab_length'
p2942
I42368
sS'total_lines'
p2943
I1000
sS'negative_lines'
p2944
I500
sS'positive_unigram_count'
p2945
g6
((dp2946
S'limited'
p2947
I25
sS'secondly'
p2948
I1
sS'saver'
p2949
I8
sS'saves'
p2950
I3
sS'yellow'
p2951
I3
sS'sleek'
p2952
I6
sS'four'
p2953
I9
sS'hating'
p2954
I1
sS'hate'
p2955
I2
sS'consider'
p2956
I8
sS'looking'
p2957
I48
sS'swap'
p2958
I4
sS'whatsoever'
p2959
I1
sS'under'
p2960
I19
sS'sorry'
p2961
I2
sS'worth'
p2962
I27
sS'updated'
p2963
I5
sS'risk'
p2964
I3
sS'activation'
p2965
I4
sS'connects'
p2966
I2
sS'stolen'
p2967
I5
sS'every'
p2968
I46
sS'updates'
p2969
I12
sS'affect'
p2970
I1
sS'lumia'
p2971
I178
sS'basics'
p2972
I4
sS'customizable'
p2973
I7
sS'cause'
p2974
I5
sS'companies'
p2975
I6
sS'upload'
p2976
I6
sS'solid'
p2977
I18
sS'announced'
p2978
I3
sS'settings'
p2979
I19
sS'heading'
p2980
I1
sS'enjoy'
p2981
I6
sS'dwindled'
p2982
I1
sS'parted'
p2983
I2
sS'bill'
p2984
I7
sS'force'
p2985
I4
sS'tired'
p2986
I3
sS'phones'
p2987
I255
sS'direct'
p2988
I1
sS'elegant'
p2989
I5
sS'likely'
p2990
I11
sS'louder'
p2991
I3
sS'implemented'
p2992
I1
sS'specs'
p2993
I11
sS'blue'
p2994
I5
sS'microsofts'
p2995
I4
sS'dept'
p2996
I1
sS'saved'
p2997
I8
sS'specification'
p2998
I1
sS'selected'
p2999
I1
sS'fingers'
p3000
I3
sS'supplied'
p3001
I1
sS'lights'
p3002
I2
sS'above'
p3003
I6
sS'new'
p3004
I103
sS'tips'
p3005
I3
sS'ever'
p3006
I24
sS'told'
p3007
I3
sS'shocked'
p3008
I2
sS'never'
p3009
I57
sS'here'
p3010
I71
sS'hundreds'
p3011
I2
sS'met'
p3012
I2
sS'protection'
p3013
I3
sS'china'
p3014
I4
sS'active'
p3015
I4
sS'kids'
p3016
I6
sS'daughter'
p3017
I18
sS'covers'
p3018
I5
sS'items'
p3019
I3
sS'leaves'
p3020
I1
sS'changed'
p3021
I9
sS'itunes'
p3022
I9
sS'credit'
p3023
I4
sS'browsing'
p3024
I10
sS'advantages'
p3025
I5
sS'fantastic'
p3026
I19
sS'explained'
p3027
I3
sS'replace'
p3028
I14
sS'brought'
p3029
I3
sS'glance'
p3030
I4
sS'total'
p3031
I6
sS'landscape'
p3032
I3
sS'overheat'
p3033
I1
sS'browse'
p3034
I4
sS'negative'
p3035
I2
sS'noting'
p3036
I2
sS'call'
p3037
I45
sS'therefore'
p3038
I1
sS'recommend'
p3039
I84
sS'survive'
p3040
I3
sS'type'
p3041
I5
sS'until'
p3042
I26
sS'brings'
p3043
I1
sS'yahoo'
p3044
I5
sS'aware'
p3045
I4
sS'phone'
p3046
I1741
sS'warm'
p3047
I1
sS'excellent'
p3048
I38
sS'hole'
p3049
I1
sS'hold'
p3050
I20
sS'outdated'
p3051
I4
sS'must'
p3052
I16
sS'shoot'
p3053
I4
sS'word'
p3054
I8
sS'room'
p3055
I9
sS'mb'
p3056
I16
sS'setup'
p3057
I17
sS'mi'
p3058
I3
sS'regrets'
p3059
I4
sS'mu'
p3060
I2
sS'movies'
p3061
I4
sS'mp'
p3062
I31
sS'install'
p3063
I13
sS'example'
p3064
I9
sS'skype'
p3065
I11
sS'organized'
p3066
I2
sS'gadgets'
p3067
I3
sS'appointment'
p3068
I1
sS'story'
p3069
I2
sS'guarantee'
p3070
I1
sS'end'
p3071
I58
sS'recovery'
p3072
I1
sS'carriers'
p3073
I2
sS'complaining'
p3074
I2
sS'travel'
p3075
I3
sS'returning'
p3076
I3
sS'nuts'
p3077
I1
sS'feature'
p3078
I57
sS'machine'
p3079
I2
sS'far'
p3080
I67
sS'amazing'
p3081
I43
sS'answer'
p3082
I4
sS'charging'
p3083
I10
sS'gaming'
p3084
I3
sS'replacing'
p3085
I2
sS'earlier'
p3086
I2
sS'wrong'
p3087
I12
sS'lot'
p3088
I86
sS'law'
p3089
I4
sS'excited'
p3090
I5
sS'types'
p3091
I3
sS'purchase'
p3092
I32
sS'attempt'
p3093
I2
sS'third'
p3094
I10
sS'recieved'
p3095
I4
sS'appreciate'
p3096
I5
sS'waited'
p3097
I4
sS'keeps'
p3098
I7
sS'fan'
p3099
I14
sS'operate'
p3100
I6
sS'skyping'
p3101
I2
sS'order'
p3102
I18
sS'jack'
p3103
I3
sS'feedback'
p3104
I5
sS'office'
p3105
I16
sS'fall'
p3106
I10
sS'androids'
p3107
I8
sS'satisfied'
p3108
I8
sS'keyboard'
p3109
I9
sS'responsive'
p3110
I26
sS'activating'
p3111
I2
sS'before'
p3112
I42
sS'difference'
p3113
I9
sS'fit'
p3114
I16
sS'personal'
p3115
I8
sS'fix'
p3116
I7
sS'expectations'
p3117
I9
sS'imo'
p3118
I2
sS'writing'
p3119
I3
sS'better'
p3120
I132
sS'compelling'
p3121
I2
sS'differently'
p3122
I2
sS'weeks'
p3123
I12
sS'fin'
p3124
I1
sS'easier'
p3125
I16
sS'eventually'
p3126
I3
sS'combination'
p3127
I1
sS'break'
p3128
I9
sS'band'
p3129
I3
sS'bang'
p3130
I6
sS'effects'
p3131
I2
sS'mvno'
p3132
I2
sS'bank'
p3133
I4
sS'brightness'
p3134
I8
sS'regularly'
p3135
I6
sS'rocks'
p3136
I1
sS'good'
p3137
I278
sS'needing'
p3138
I1
sS'reasonable'
p3139
I8
sS'each'
p3140
I13
sS'addicted'
p3141
I2
sS'went'
p3142
I19
sS'bells'
p3143
I9
sS'side'
p3144
I23
sS'mean'
p3145
I8
sS'rebooted'
p3146
I2
sS'fairly'
p3147
I9
sS'series'
p3148
I5
sS'solution'
p3149
I3
sS'used'
p3150
I112
sS'trading'
p3151
I2
sS'message'
p3152
I5
sS'network'
p3153
I41
sS'driving'
p3154
I4
sS'rs'
p3155
I1
sS'god'
p3156
I2
sS'cameras'
p3157
I11
sS'sms'
p3158
I3
sS'content'
p3159
I4
sS're'
p3160
I9
sS'laid'
p3161
I2
sS'bypassed'
p3162
I1
sS'ra'
p3163
I1
sS'reader'
p3164
I4
sS'got'
p3165
I75
sS'newly'
p3166
I1
sS'size'
p3167
I43
sS'forth'
p3168
I2
sS'turning'
p3169
I1
sS'given'
p3170
I9
sS'free'
p3171
I75
sS'standard'
p3172
I9
sS'ian'
p3173
I1
sS'sheet'
p3174
I3
sS'wanted'
p3175
I30
sS'ate'
p3176
I2
sS'shipper'
p3177
I2
sS'starts'
p3178
I5
sS'inexpensive'
p3179
I10
sS'messages'
p3180
I10
sS'days'
p3181
I43
sS'ups'
p3182
I2
sS'lousy'
p3183
I2
sS'shipped'
p3184
I5
sS'heck'
p3185
I2
sS'speedy'
p3186
I3
sS'isn'
p3187
I2
sS'swiping'
p3188
I4
sS'moving'
p3189
I3
sS'onto'
p3190
I5
sS'speeds'
p3191
I7
sS'user'
p3192
I58
sS'laggy'
p3193
I2
sS'rang'
p3194
I1
sS'already'
p3195
I23
sS'features'
p3196
I102
sS'primary'
p3197
I3
sS'hoot'
p3198
I1
sS'hearing'
p3199
I1
sS'rant'
p3200
I1
sS'downside'
p3201
I7
sS'another'
p3202
I47
sS'thick'
p3203
I2
sS'clarity'
p3204
I1
sS'electronic'
p3205
I1
sS'rated'
p3206
I3
sS'service'
p3207
I37
sS'similarly'
p3208
I3
sS'top'
p3209
I22
sS'plentiful'
p3210
I2
sS'needed'
p3211
I25
sS'rates'
p3212
I1
sS'too'
p3213
I74
sS'inconvenient'
p3214
I1
sS'cycle'
p3215
I3
sS'dogs'
p3216
I1
sS'tod'
p3217
I2
sS'listen'
p3218
I14
sS'butter'
p3219
I2
sS'tool'
p3220
I3
sS'took'
p3221
I22
sS'somewhat'
p3222
I5
sS'hadnt'
p3223
I2
sS'distance'
p3224
I1
sS'perfectly'
p3225
I14
sS'target'
p3226
I2
sS'showed'
p3227
I1
sS'older'
p3228
I7
sS'enabled'
p3229
I2
sS'second'
p3230
I20
sS'ebay'
p3231
I2
sS'matter'
p3232
I3
sS'fabulous'
p3233
I2
sS'friend'
p3234
I5
sS'iron'
p3235
I1
sS'feeling'
p3236
I5
sS'mini'
p3237
I4
sS'ran'
p3238
I2
sS'navigate'
p3239
I8
sS'modern'
p3240
I6
sS'mind'
p3241
I14
sS'mine'
p3242
I11
sS'spent'
p3243
I7
sS'talking'
p3244
I6
sS'seen'
p3245
I8
sS'seem'
p3246
I12
sS'mins'
p3247
I1
sS'tells'
p3248
I2
sS'relatively'
p3249
I2
sS'forced'
p3250
I1
sS'strength'
p3251
I4
sS'convenient'
p3252
I5
sS'latter'
p3253
I1
sS'gripe'
p3254
I1
sS'snow'
p3255
I3
sS'recommended'
p3256
I13
sS'client'
p3257
I1
sS'niece'
p3258
I2
sS'though'
p3259
I42
sS'optimized'
p3260
I2
sS'regular'
p3261
I9
sS'plenty'
p3262
I12
sS'macbook'
p3263
I2
sS'don'
p3264
I5
sS'clock'
p3265
I1
sS'metal'
p3266
I5
sS'dog'
p3267
I4
sS'competitors'
p3268
I2
sS'definitely'
p3269
I31
sS'tech'
p3270
I25
sS'dos'
p3271
I2
sS'section'
p3272
I1
sS'came'
p3273
I24
sS'saying'
p3274
I6
sS'overpriced'
p3275
I1
sS'contacted'
p3276
I1
sS'ringtones'
p3277
I2
sS'random'
p3278
I2
sS'colors'
p3279
I8
sS'radio'
p3280
I14
sS'nephew'
p3281
I2
sS'tempted'
p3282
I1
sS'cheaply'
p3283
I2
sS'availability'
p3284
I2
sS'touches'
p3285
I2
sS'busy'
p3286
I1
sS'layout'
p3287
I8
sS'menu'
p3288
I5
sS'hrs'
p3289
I1
sS'rico'
p3290
I2
sS'theme'
p3291
I1
sS'touched'
p3292
I2
sS'rich'
p3293
I2
sS'integrate'
p3294
I3
sS'adequate'
p3295
I6
sS'oct'
p3296
I1
sS'borrowed'
p3297
I1
sS'plate'
p3298
I3
sS'tiles'
p3299
I38
sS'colorful'
p3300
I4
sS'di'
p3301
I1
sS'stop'
p3302
I11
sS'fluid'
p3303
I5
sS'preferred'
p3304
I4
sS'pocket'
p3305
I10
sS'amazon'
p3306
I62
sS'despite'
p3307
I13
sS'report'
p3308
I4
sS'net'
p3309
I2
sS'runs'
p3310
I19
sS'bar'
p3311
I4
sS'countries'
p3312
I2
sS'nicely'
p3313
I9
sS'twice'
p3314
I5
sS'bad'
p3315
I34
sS'shots'
p3316
I8
sS'release'
p3317
I7
sS'automatic'
p3318
I4
sS'gotta'
p3319
I4
sS'thanks'
p3320
I19
sS'optimus'
p3321
I6
sS'disaster'
p3322
I1
sS'fair'
p3323
I4
sS'sensitivity'
p3324
I5
sS'testing'
p3325
I4
sS'recieve'
p3326
I3
sS'decided'
p3327
I17
sS'result'
p3328
I3
sS'fail'
p3329
I5
sS'best'
p3330
I102
sS'subject'
p3331
I2
sS'lumina'
p3332
I6
sS'said'
p3333
I30
sS'capacity'
p3334
I5
sS'lots'
p3335
I14
sS'away'
p3336
I31
sS'unable'
p3337
I4
sS'finger'
p3338
I4
sS'hopefully'
p3339
I9
sS'sorts'
p3340
I1
sS'preserve'
p3341
I1
sS'replaceable'
p3342
I8
sS'terms'
p3343
I8
sS'handful'
p3344
I2
sS'packaged'
p3345
I2
sS'however'
p3346
I41
sS'cut'
p3347
I10
sS'wear'
p3348
I3
sS'extent'
p3349
I2
sS'wp'
p3350
I50
sS'downgrade'
p3351
I2
sS'news'
p3352
I6
sS'suggested'
p3353
I4
sS'received'
p3354
I15
sS'protect'
p3355
I1
sS'accident'
p3356
I2
sS'country'
p3357
I5
sS'ill'
p3358
I21
sS'against'
p3359
I3
sS'games'
p3360
I33
sS'restarting'
p3361
I1
sS'lookin'
p3362
I1
sS'receiver'
p3363
I1
sS'exceeds'
p3364
I2
sS'studio'
p3365
I1
sS'expense'
p3366
I2
sS'com'
p3367
I7
sS'asked'
p3368
I2
sS'lenses'
p3369
I2
sS'con'
p3370
I7
sS'eyesight'
p3371
I2
sS'tough'
p3372
I4
sS'appeared'
p3373
I1
sS'height'
p3374
I2
sS'tons'
p3375
I10
sS'loaded'
p3376
I5
sS'refill'
p3377
I2
sS'speak'
p3378
I2
sS'conference'
p3379
I4
sS'puts'
p3380
I3
sS'basis'
p3381
I1
sS'chrome'
p3382
I2
sS'fro'
p3383
I1
sS'three'
p3384
I18
sS'been'
p3385
I80
sS'quickly'
p3386
I20
sS'restarts'
p3387
I1
sS'much'
p3388
I123
sS'refurbished'
p3389
I2
sS'interest'
p3390
I4
sS'basic'
p3391
I30
sS'expected'
p3392
I18
sS'dozens'
p3393
I1
sS'threw'
p3394
I2
sS'website'
p3395
I10
sS'life'
p3396
I66
sS'sooooo'
p3397
I1
sS'personally'
p3398
I4
sS'catch'
p3399
I4
sS'worked'
p3400
I19
sS'exception'
p3401
I4
sS'save'
p3402
I15
sS'launcher'
p3403
I2
sS'air'
p3404
I3
sS'ugly'
p3405
I1
sS'near'
p3406
I6
sS'neat'
p3407
I3
sS'voice'
p3408
I35
sS'mistake'
p3409
I5
sS'cons'
p3410
I36
sS'played'
p3411
I4
sS'ir'
p3412
I1
sS'accessories'
p3413
I9
sS'conditioned'
p3414
I3
sS'ii'
p3415
I8
sS'player'
p3416
I23
sS'cant'
p3417
I76
sS'im'
p3418
I134
sS'io'
p3419
I2
sS'vendor'
p3420
I4
sS'nailed'
p3421
I2
sS'ie'
p3422
I6
sS'id'
p3423
I27
sS'trusted'
p3424
I1
sS'grown'
p3425
I3
sS'lacking'
p3426
I3
sS'perform'
p3427
I3
sS'suggest'
p3428
I9
sS'make'
p3429
I64
sS'syncs'
p3430
I7
sS'clearly'
p3431
I8
sS'craigslist'
p3432
I1
sS'drawback'
p3433
I9
sS'unfortunate'
p3434
I1
sS'several'
p3435
I20
sS'couple'
p3436
I17
sS'european'
p3437
I1
sS'meets'
p3438
I1
sS'metropcs'
p3439
I7
sS'social'
p3440
I11
sS'hand'
p3441
I33
sS'afraid'
p3442
I1
sS'kin'
p3443
I3
sS'positives'
p3444
I2
sS'thoughts'
p3445
I1
sS'kid'
p3446
I1
sS'mentioning'
p3447
I1
sS'kept'
p3448
I2
sS'programs'
p3449
I3
sS'youre'
p3450
I38
sS'lcd'
p3451
I2
sS'tho'
p3452
I3
sS'savings'
p3453
I3
sS'materials'
p3454
I2
sS'greatest'
p3455
I8
sS'pandora'
p3456
I2
sS'mother'
p3457
I6
sS'claims'
p3458
I2
sS'paradigm'
p3459
I1
sS'yours'
p3460
I1
sS'left'
p3461
I18
sS'yen'
p3462
I1
sS'photo'
p3463
I11
sS'laptop'
p3464
I7
sS'prints'
p3465
I2
sS'mid'
p3466
I5
sS'thumbs'
p3467
I1
sS'yes'
p3468
I26
sS'yet'
p3469
I21
sS'previous'
p3470
I7
sS'adding'
p3471
I3
sS'buyers'
p3472
I1
sS'ease'
p3473
I11
sS'had'
p3474
I197
sS'spread'
p3475
I2
sS'easy'
p3476
I147
sS'whatsapp'
p3477
I1
sS'has'
p3478
I277
sS'gave'
p3479
I7
sS'usable'
p3480
I2
sS'knock'
p3481
I1
sS'possible'
p3482
I5
sS'possibly'
p3483
I2
sS'boxes'
p3484
I3
sS'background'
p3485
I12
sS'performance'
p3486
I18
sS'unique'
p3487
I2
sS'advanced'
p3488
I4
sS'apart'
p3489
I3
sS'gift'
p3490
I10
sS'glitch'
p3491
I2
sS'manual'
p3492
I3
sS'zoom'
p3493
I3
sS'xbox'
p3494
I9
sS'specific'
p3495
I3
sS'steps'
p3496
I5
sS'night'
p3497
I10
sS'security'
p3498
I2
sS'whomever'
p3499
I1
sS'right'
p3500
I45
sS'old'
p3501
I67
sS'deal'
p3502
I59
sS'people'
p3503
I56
sS'sure'
p3504
I44
sS'hassle'
p3505
I1
sS'pain'
p3506
I3
sS'theyre'
p3507
I5
sS'tutorial'
p3508
I1
sS'confusing'
p3509
I3
sS'bottom'
p3510
I16
sS'notification'
p3511
I1
sS'ear'
p3512
I2
sS'comments'
p3513
I3
sS'everything'
p3514
I76
sS'asking'
p3515
I1
sS'unit'
p3516
I1
sS'beating'
p3517
I1
sS'christmas'
p3518
I7
sS'cord'
p3519
I3
sS'core'
p3520
I13
sS'knew'
p3521
I11
sS'deleted'
p3522
I4
sS'hsn'
p3523
I8
sS'standalone'
p3524
I2
sS'discount'
p3525
I2
sS'losing'
p3526
I2
sS'post'
p3527
I1
sS'super'
p3528
I27
sS'plug'
p3529
I7
sS'limitation'
p3530
I3
sS'dollars'
p3531
I22
sS'months'
p3532
I21
sS'plus'
p3533
I30
sS'afternoon'
p3534
I1
sS'islands'
p3535
I2
sS'efforts'
p3536
I1
sS'slightly'
p3537
I7
sS'automatically'
p3538
I10
sS'destination'
p3539
I3
sS'whats'
p3540
I5
sS'wasting'
p3541
I1
sS'soo'
p3542
I3
sS'son'
p3543
I15
sS'down'
p3544
I40
sS'complaints'
p3545
I9
sS'wrap'
p3546
I2
sS'pantalla'
p3547
I1
sS'annoyance'
p3548
I1
sS'rely'
p3549
I1
sS'wal'
p3550
I4
sS'panorama'
p3551
I2
sS'support'
p3552
I16
sS'constantly'
p3553
I5
sS'sunlight'
p3554
I3
sS'lags'
p3555
I3
sS'gig'
p3556
I6
sS'stuck'
p3557
I7
sS'accordingly'
p3558
I1
sS'fraction'
p3559
I4
sS'music'
p3560
I106
sS'wat'
p3561
I1
sS'launching'
p3562
I2
sS'happy'
p3563
I56
sS'selection'
p3564
I11
sS'head'
p3565
I3
sS'medium'
p3566
I2
sS'battery'
p3567
I183
sS'offering'
p3568
I5
sS'offer'
p3569
I12
sS'something'
p3570
I34
sS'differences'
p3571
I5
sS'wireless'
p3572
I6
sS'notifications'
p3573
I1
sS'heat'
p3574
I2
sS'hear'
p3575
I7
sS'true'
p3576
I8
sS'reset'
p3577
I10
sS'versions'
p3578
I5
sS'prevents'
p3579
I2
sS'mtp'
p3580
I3
sS'attached'
p3581
I3
sS'bargain'
p3582
I7
sS'devices'
p3583
I34
sS'tell'
p3584
I18
sS'crystal'
p3585
I2
sS'glitchy'
p3586
I3
sS'lumias'
p3587
I3
sS'delete'
p3588
I9
sS'mails'
p3589
I2
sS'promises'
p3590
I1
sS'proven'
p3591
I1
sS'sale'
p3592
I8
sS'qwerty'
p3593
I1
sS'sometime'
p3594
I1
sS'exist'
p3595
I3
sS'awhile'
p3596
I2
sS'annoying'
p3597
I10
sS'dealer'
p3598
I1
sS'physical'
p3599
I2
sS'ni'
p3600
I3
sS'password'
p3601
I3
sS'techs'
p3602
I2
sS'no'
p3603
I281
sS'na'
p3604
I1
sS'nb'
p3605
I4
sS'alerts'
p3606
I3
sS'tip'
p3607
I1
sS'handed'
p3608
I4
sS'reality'
p3609
I4
sS'setting'
p3610
I8
sS'holding'
p3611
I6
sS'digital'
p3612
I4
sS'test'
p3613
I4
sS'developers'
p3614
I4
sS'nu'
p3615
I2
sS'tic'
p3616
I2
sS'picture'
p3617
I27
sS'reconsider'
p3618
I1
sS'delivered'
p3619
I4
sS'models'
p3620
I4
sS'dies'
p3621
I3
sS'why'
p3622
I30
sS'felt'
p3623
I8
sS'update'
p3624
I54
sS'fell'
p3625
I2
sS'invested'
p3626
I2
sS'weekend'
p3627
I2
sS'unlocking'
p3628
I1
sS'died'
p3629
I6
sS'faster'
p3630
I16
sS'bullet'
p3631
I1
sS'glass'
p3632
I8
sS'together'
p3633
I6
sS'gorilla'
p3634
I3
sS'reception'
p3635
I9
sS'time'
p3636
I101
sS'push'
p3637
I2
sS'serious'
p3638
I1
sS'songs'
p3639
I7
sS'managed'
p3640
I2
sS'rom'
p3641
I1
sS'chain'
p3642
I1
sS'switched'
p3643
I8
sS'reviewers'
p3644
I3
sS'global'
p3645
I2
sS'alternatives'
p3646
I4
sS'focus'
p3647
I7
sS'manager'
p3648
I2
sS'manages'
p3649
I3
sS'ice'
p3650
I1
sS'skin'
p3651
I2
sS'activates'
p3652
I2
sS'rot'
p3653
I2
sS'certainly'
p3654
I10
sS'depend'
p3655
I2
sS'essentials'
p3656
I2
sS'fancier'
p3657
I2
sS'flash'
p3658
I93
sS'father'
p3659
I5
sS'gigs'
p3660
I6
sS'environment'
p3661
I3
sS'answered'
p3662
I1
sS'charge'
p3663
I33
sS'smartphone'
p3664
I88
sS'advantage'
p3665
I5
sS'keeping'
p3666
I8
sS'seemingly'
p3667
I2
sS'choice'
p3668
I7
sS'entries'
p3669
I2
sS'application'
p3670
I3
sS'locked'
p3671
I8
sS'trouble'
p3672
I8
sS'blast'
p3673
I2
sS'exact'
p3674
I4
sS'minute'
p3675
I8
sS'cool'
p3676
I20
sS'impressive'
p3677
I7
sS'level'
p3678
I16
sS'did'
p3679
I58
sS'turns'
p3680
I3
sS'fragile'
p3681
I1
sS'registered'
p3682
I1
sS'accidentally'
p3683
I2
sS'standards'
p3684
I1
sS'leave'
p3685
I7
sS'item'
p3686
I6
sS'settle'
p3687
I3
sS'quick'
p3688
I23
sS'loads'
p3689
I2
sS'mo'
p3690
I13
sS'dis'
p3691
I1
sS'shave'
p3692
I2
sS'upper'
p3693
I2
sS'droid'
p3694
I10
sS'htc'
p3695
I14
sS'regret'
p3696
I4
sS'findings'
p3697
I2
sS'discover'
p3698
I1
sS'sign'
p3699
I4
sS'slowed'
p3700
I1
sS'cost'
p3701
I39
sS'voucher'
p3702
I2
sS'port'
p3703
I4
sS'headset'
p3704
I4
sS'adds'
p3705
I2
sS'stands'
p3706
I2
sS'heres'
p3707
I2
sS'assistance'
p3708
I1
sS'pleased'
p3709
I18
sS'current'
p3710
I19
sS'suspect'
p3711
I1
sS'goes'
p3712
I10
sS'shared'
p3713
I3
sS'ground'
p3714
I2
sS'supporting'
p3715
I1
sS'ms'
p3716
I11
sS'clerk'
p3717
I1
sS'learn'
p3718
I17
sS'understanding'
p3719
I2
sS'water'
p3720
I3
sS'downloaded'
p3721
I6
sS'slow'
p3722
I13
sS'address'
p3723
I4
sS'alone'
p3724
I7
sS'along'
p3725
I7
sS'hoops'
p3726
I1
sS'appears'
p3727
I4
sS'change'
p3728
I32
sS'wait'
p3729
I7
sS'box'
p3730
I28
sS'buck'
p3731
I6
sS'incoming'
p3732
I4
sS'noticeable'
p3733
I4
sS'usually'
p3734
I11
sS'weird'
p3735
I1
sS'navigation'
p3736
I28
sS'tasks'
p3737
I3
sS'love'
p3738
I159
sS'oem'
p3739
I1
sS'extra'
p3740
I24
sS'problematic'
p3741
I1
sS'prefer'
p3742
I4
sS'keeper'
p3743
I2
sS'flexibility'
p3744
I2
sS'rarely'
p3745
I2
sS'market'
p3746
I28
sS'working'
p3747
I15
sS'positive'
p3748
I3
sS'angry'
p3749
I1
sS'pero'
p3750
I2
sS'connector'
p3751
I1
sS'msn'
p3752
I3
sS'live'
p3753
I43
sS'iphone'
p3754
I104
sS'wondering'
p3755
I2
sS'memory'
p3756
I34
sS'thru'
p3757
I4
sS'today'
p3758
I7
sS'loving'
p3759
I2
sS'scratched'
p3760
I1
sS'sharing'
p3761
I7
sS'faith'
p3762
I1
sS'afford'
p3763
I2
sS'acceptable'
p3764
I6
sS'visual'
p3765
I1
sS'everywhere'
p3766
I2
sS'smudges'
p3767
I2
sS'scratches'
p3768
I4
sS'cases'
p3769
I8
sS'effort'
p3770
I1
sS'anything'
p3771
I25
sS'car'
p3772
I11
sS'originally'
p3773
I4
sS'pretend'
p3774
I1
sS'cat'
p3775
I1
sS'reviews'
p3776
I30
sS'labeled'
p3777
I2
sS'printing'
p3778
I1
sS'values'
p3779
I3
sS'hope'
p3780
I12
sS'cam'
p3781
I3
sS'cal'
p3782
I2
sS'growing'
p3783
I7
sS'making'
p3784
I13
sS'arrive'
p3785
I2
sS'slightest'
p3786
I2
sS'cad'
p3787
I1
sS'claim'
p3788
I2
sS'crazy'
p3789
I4
sS'figure'
p3790
I12
sS'amazons'
p3791
I1
sS'awesome'
p3792
I39
sS'confused'
p3793
I3
sS'agent'
p3794
I1
sS'heard'
p3795
I7
sS'dropped'
p3796
I14
sS'allowed'
p3797
I3
sS'pink'
p3798
I1
sS'winter'
p3799
I2
sS'fortunately'
p3800
I3
sS'exceptional'
p3801
I2
sS'ping'
p3802
I2
sS'snapdragon'
p3803
I4
sS'write'
p3804
I8
sS'till'
p3805
I2
sS'actual'
p3806
I7
sS'pure'
p3807
I3
sS'tile'
p3808
I10
sS'ensure'
p3809
I2
sS'absolute'
p3810
I2
sS'nonstop'
p3811
I2
sS'map'
p3812
I12
sS'product'
p3813
I33
sS'designer'
p3814
I2
sS'explorer'
p3815
I5
sS'crashes'
p3816
I1
sS'huge'
p3817
I16
sS'may'
p3818
I34
sS'max'
p3819
I1
sS'clone'
p3820
I2
sS'spot'
p3821
I6
sS'expectation'
p3822
I1
sS'applications'
p3823
I14
sS'mac'
p3824
I4
sS'birthday'
p3825
I5
sS'designed'
p3826
I3
sS'gingerbread'
p3827
I2
sS'date'
p3828
I9
sS'such'
p3829
I45
sS'data'
p3830
I81
sS'man'
p3831
I4
sS'surfing'
p3832
I4
sS'natural'
p3833
I3
sS'remember'
p3834
I7
sS'conscious'
p3835
I2
sS'whenever'
p3836
I4
sS'maybe'
p3837
I18
sS'ghz'
p3838
I9
sS'st'
p3839
I11
sS'provide'
p3840
I6
sS'switch'
p3841
I15
sS'deposit'
p3842
I2
sS'long'
p3843
I32
sS'april'
p3844
I2
sS'talk'
p3845
I21
sS'sd'
p3846
I43
sS'refund'
p3847
I2
sS'exclusive'
p3848
I6
sS'breaking'
p3849
I1
sS'repair'
p3850
I2
sS'indeed'
p3851
I6
sS'mainly'
p3852
I3
sS'years'
p3853
I36
sS'course'
p3854
I13
sS'tablets'
p3855
I5
sS'cuts'
p3856
I1
sS'still'
p3857
I106
sS'scale'
p3858
I2
sS'group'
p3859
I3
sS'thank'
p3860
I13
sS'internationally'
p3861
I1
sS'menus'
p3862
I3
sS'interesting'
p3863
I4
sS'hot'
p3864
I4
sS'platform'
p3865
I13
sS'window'
p3866
I9
sS'offers'
p3867
I9
sS'listing'
p3868
I2
sS'policy'
p3869
I1
sS'mail'
p3870
I12
sS'main'
p3871
I13
sS'brainer'
p3872
I4
sS'happened'
p3873
I5
sS'non'
p3874
I16
sS'smarter'
p3875
I2
sS'killer'
p3876
I2
sS'touching'
p3877
I1
sS'half'
p3878
I15
sS'not'
p3879
I465
sS'discuss'
p3880
I2
sS'nor'
p3881
I4
sS'matched'
p3882
I1
sS'wont'
p3883
I35
sS'term'
p3884
I3
sS'name'
p3885
I4
sS'january'
p3886
I2
sS'times'
p3887
I24
sS'artist'
p3888
I4
sS'debating'
p3889
I2
sS'rock'
p3890
I2
sS'stays'
p3891
I2
sS'el'
p3892
I1
sS'en'
p3893
I1
sS'significantly'
p3894
I4
sS'badly'
p3895
I1
sS'hiccups'
p3896
I1
sS'ed'
p3897
I8
sS'yeah'
p3898
I4
sS'fires'
p3899
I2
sS'ex'
p3900
I3
sS'entering'
p3901
I2
sS'happen'
p3902
I3
sS'summary'
p3903
I1
sS'es'
p3904
I10
sS'er'
p3905
I7
sS'album'
p3906
I4
sS'living'
p3907
I3
sS'ultimately'
p3908
I1
sS'opened'
p3909
I2
sS'space'
p3910
I8
sS'blu'
p3911
I1
sS'furthermore'
p3912
I2
sS'factory'
p3913
I1
sS'increase'
p3914
I1
sS'seriously'
p3915
I3
sS'stupid'
p3916
I1
sS'navigating'
p3917
I2
sS'internet'
p3918
I45
sS'receiving'
p3919
I1
sS'sensor'
p3920
I2
sS'correct'
p3921
I3
sS'shows'
p3922
I5
sS'lag'
p3923
I13
sS'state'
p3924
I3
sS'cars'
p3925
I2
sS'smudge'
p3926
I2
sS'quite'
p3927
I35
sS'hulu'
p3928
I2
sS'unwanted'
p3929
I2
sS'hspa'
p3930
I4
sS'obligation'
p3931
I2
sS'card'
p3932
I112
sS'care'
p3933
I15
sS'bloatware'
p3934
I1
sS'connectivity'
p3935
I1
sS'backside'
p3936
I6
sS'headphones'
p3937
I4
sS'programming'
p3938
I1
sS'downsides'
p3939
I3
sS'honest'
p3940
I2
sS'turn'
p3941
I24
sS'place'
p3942
I12
sS'massive'
p3943
I1
sS'amazingly'
p3944
I3
sS'router'
p3945
I6
sS'star'
p3946
I7
sS'frequent'
p3947
I2
sS'initial'
p3948
I3
sS'saving'
p3949
I6
sS'predictive'
p3950
I2
sS'yourself'
p3951
I7
sS'fast'
p3952
I87
sS'directly'
p3953
I5
sS'carry'
p3954
I2
sS'impossible'
p3955
I5
sS'xp'
p3956
I2
sS'open'
p3957
I11
sS'millions'
p3958
I2
sS'city'
p3959
I5
sS'little'
p3960
I84
sS'necessarily'
p3961
I4
sS'checked'
p3962
I2
sS'silent'
p3963
I1
sS'virgin'
p3964
I4
sS'europe'
p3965
I2
sS'plastic'
p3966
I21
sS'anyone'
p3967
I23
sS'returns'
p3968
I1
sS'typing'
p3969
I9
sS'white'
p3970
I11
sS'speaking'
p3971
I4
sS'gives'
p3972
I5
sS'exploring'
p3973
I1
sS'mostly'
p3974
I4
sS'viewing'
p3975
I2
sS'released'
p3976
I6
sS'ridiculous'
p3977
I8
sS'quirky'
p3978
I1
sS'copy'
p3979
I4
sS'boyfriend'
p3980
I1
sS'wide'
p3981
I1
sS'rugged'
p3982
I1
sS'unfortunately'
p3983
I5
sS'require'
p3984
I5
sS'transferred'
p3985
I6
sS'future'
p3986
I9
sS'apples'
p3987
I3
sS'were'
p3988
I45
sS'cards'
p3989
I5
sS'browser'
p3990
I15
sS'pre'
p3991
I11
sS'files'
p3992
I18
sS'pro'
p3993
I8
sS'turned'
p3994
I13
sS'locations'
p3995
I3
sS'sad'
p3996
I1
sS'ant'
p3997
I3
sS'slam'
p3998
I1
sS'sells'
p3999
I2
sS'recover'
p4000
I1
sS'occupied'
p4001
I2
sS'sat'
p4002
I1
sS'speakers'
p4003
I3
sS'form'
p4004
I2
sS'efficient'
p4005
I7
sS'editing'
p4006
I6
sS'answering'
p4007
I1
sS'upgrading'
p4008
I2
sS'aside'
p4009
I3
sS'hotspot'
p4010
I7
sS'note'
p4011
I20
sS'potential'
p4012
I2
sS'take'
p4013
I46
sS'online'
p4014
I20
sS'wanting'
p4015
I2
sS'wonder'
p4016
I3
sS'switching'
p4017
I10
sS'channel'
p4018
I2
sS'surf'
p4019
I6
sS'begin'
p4020
I1
sS'printer'
p4021
I2
sS'multiple'
p4022
I7
sS'normal'
p4023
I6
sS'track'
p4024
I2
sS'price'
p4025
I288
sS'enter'
p4026
I4
sS'paid'
p4027
I18
sS'falls'
p4028
I2
sS'beta'
p4029
I4
sS'importantly'
p4030
I3
sS'pair'
p4031
I2
sS'pages'
p4032
I3
sS'forever'
p4033
I3
sS'especially'
p4034
I28
sS'flawlessly'
p4035
I4
sS'considered'
p4036
I4
sS'average'
p4037
I9
sS'later'
p4038
I14
sS'drive'
p4039
I24
sS'tooth'
p4040
I3
sS'ways'
p4041
I7
sS'professional'
p4042
I2
sS'senior'
p4043
I2
sS'typically'
p4044
I1
sS'shop'
p4045
I4
sS'shot'
p4046
I4
sS'show'
p4047
I10
sS'cheap'
p4048
I51
sS'discovered'
p4049
I5
sS'bright'
p4050
I10
sS'inconsistent'
p4051
I1
sS'corner'
p4052
I4
sS'superb'
p4053
I5
sS'painlessly'
p4054
I2
sS'fifth'
p4055
I1
sS'crashing'
p4056
I1
sS'slot'
p4057
I12
sS'upgrade'
p4058
I21
sS'ratio'
p4059
I2
sS'husband'
p4060
I13
sS'fb'
p4061
I2
sS'going'
p4062
I38
sS'black'
p4063
I5
sS'info'
p4064
I6
sS'correctly'
p4065
I2
sS'contracts'
p4066
I6
sS'assistant'
p4067
I2
sS'freezing'
p4068
I3
sS'emulators'
p4069
I2
sS'truly'
p4070
I12
sS'cannot'
p4071
I20
sS'nearly'
p4072
I5
sS'lighter'
p4073
I3
sS'installed'
p4074
I18
sS'gen'
p4075
I9
sS'gem'
p4076
I2
sS'prime'
p4077
I5
sS'regarding'
p4078
I4
sS'intuitive'
p4079
I15
sS'keyboards'
p4080
I2
sS'leather'
p4081
I2
sS'seldom'
p4082
I2
sS'morning'
p4083
I2
sS'miles'
p4084
I1
sS'where'
p4085
I32
sS'inside'
p4086
I3
sS'pouches'
p4087
I2
sS'helps'
p4088
I7
sS'innovative'
p4089
I2
sS'comparable'
p4090
I5
sS'college'
p4091
I4
sS'anyways'
p4092
I3
sS'seal'
p4093
I2
sS'calendar'
p4094
I19
sS'concern'
p4095
I3
sS'detect'
p4096
I2
sS'mortgage'
p4097
I2
sS'managing'
p4098
I4
sS'review'
p4099
I33
sS'boy'
p4100
I3
sS'sites'
p4101
I6
sS'label'
p4102
I1
sS'enough'
p4103
I32
sS'between'
p4104
I15
sS'ui'
p4105
I6
sS'reading'
p4106
I11
sS'checks'
p4107
I2
sS'affordable'
p4108
I14
sS'notice'
p4109
I2
sS'jobs'
p4110
I2
sS'august'
p4111
I1
sS'useful'
p4112
I12
sS'parental'
p4113
I1
sS'screen'
p4114
I191
sS'jo'
p4115
I1
sS'dates'
p4116
I2
sS'many'
p4117
I75
sS'voicemail'
p4118
I2
sS'resist'
p4119
I2
sS'quiet'
p4120
I2
sS'contract'
p4121
I51
sS'somewhere'
p4122
I1
sS'disappointment'
p4123
I1
sS'comes'
p4124
I42
sS'among'
p4125
I4
sS'necessary'
p4126
I8
sS'siii'
p4127
I3
sS'color'
p4128
I15
sS'effective'
p4129
I1
sS'period'
p4130
I7
sS'pop'
p4131
I6
sS'anti'
p4132
I3
sS'learning'
p4133
I14
sS'constant'
p4134
I4
sS'pod'
p4135
I2
sS'considering'
p4136
I16
sS'cares'
p4137
I3
sS'informed'
p4138
I1
sS'mart'
p4139
I4
sS'hardly'
p4140
I2
sS'wants'
p4141
I11
sS'direction'
p4142
I6
sS'enable'
p4143
I3
sS'shopping'
p4144
I6
sS'offered'
p4145
I2
sS'laptops'
p4146
I2
sS'photos'
p4147
I38
sS'external'
p4148
I2
sS'careful'
p4149
I2
sS'former'
p4150
I2
sS'those'
p4151
I53
sS'countless'
p4152
I3
sS'sound'
p4153
I33
sS'myself'
p4154
I16
sS'mount'
p4155
I1
sS'worried'
p4156
I4
sS'cash'
p4157
I3
sS'trick'
p4158
I2
sS'slippery'
p4159
I4
sS'situation'
p4160
I1
sS'shops'
p4161
I2
sS'ive'
p4162
I88
sS'handy'
p4163
I7
sS'middle'
p4164
I1
sS'someone'
p4165
I15
sS'return'
p4166
I9
sS'technology'
p4167
I8
sS'mediocre'
p4168
I2
sS'worry'
p4169
I5
sS'par'
p4170
I3
sS'shuts'
p4171
I2
sS'assure'
p4172
I1
sS'pay'
p4173
I49
sS'granted'
p4174
I4
sS'same'
p4175
I51
sS'trip'
p4176
I5
sS'figuring'
p4177
I1
sS'pad'
p4178
I1
sS'buys'
p4179
I3
sS'lite'
p4180
I3
sS'reminder'
p4181
I1
sS'document'
p4182
I2
sS'events'
p4183
I2
sS'dated'
p4184
I2
sS'week'
p4185
I16
sS'extended'
p4186
I2
sS'downloads'
p4187
I3
sS'driver'
p4188
I4
sS'persons'
p4189
I2
sS'running'
p4190
I20
sS'codes'
p4191
I1
sS'wired'
p4192
I1
sS'favorites'
p4193
I2
sS'intended'
p4194
I2
sS'changing'
p4195
I2
sS'totally'
p4196
I4
sS'drain'
p4197
I8
sS'modes'
p4198
I3
sS'charges'
p4199
I6
sS'charger'
p4200
I18
sS'floor'
p4201
I1
sS'costs'
p4202
I12
sS'solve'
p4203
I3
sS'relief'
p4204
I2
sS'model'
p4205
I13
sS'amazed'
p4206
I4
sS'justify'
p4207
I4
sS'summer'
p4208
I2
sS'gdr'
p4209
I3
sS'outdoor'
p4210
I5
sS'being'
p4211
I48
sS'excel'
p4212
I5
sS'guided'
p4213
I3
sS'actions'
p4214
I1
sS'kill'
p4215
I2
sS'touch'
p4216
I47
sS'speed'
p4217
I17
sS'wifes'
p4218
I7
sS'death'
p4219
I2
sS'enthusiast'
p4220
I2
sS'thinking'
p4221
I6
sS'seems'
p4222
I37
sS'except'
p4223
I19
sS'desktop'
p4224
I12
sS'lets'
p4225
I10
sS'interested'
p4226
I3
sS'flashing'
p4227
I1
sS'sucked'
p4228
I1
sS'real'
p4229
I23
sS'around'
p4230
I40
sS'read'
p4231
I31
sS'calendars'
p4232
I3
sS'gonna'
p4233
I3
sS'dark'
p4234
I10
sS'np'
p4235
I1
sS'darn'
p4236
I1
sS'mom'
p4237
I7
sS'world'
p4238
I17
sS'glitches'
p4239
I1
sS'disappointed'
p4240
I8
sS'rear'
p4241
I8
sS'serves'
p4242
I2
sS'lightning'
p4243
I3
sS'shutter'
p4244
I4
sS'benefit'
p4245
I4
sS'either'
p4246
I10
sS'always'
p4247
I38
sS'served'
p4248
I1
sS'tower'
p4249
I1
sS'reduced'
p4250
I1
sS'iterations'
p4251
I1
sS'competition'
p4252
I2
sS'hacks'
p4253
I2
sS'table'
p4254
I1
sS'images'
p4255
I3
sS'thinks'
p4256
I3
sS'provided'
p4257
I4
sS'outs'
p4258
I2
sS'windows'
p4259
I363
sS'confirm'
p4260
I1
sS'highest'
p4261
I5
sS'slick'
p4262
I6
sS'critical'
p4263
I2
sS'exit'
p4264
I1
sS'provides'
p4265
I6
sS'provider'
p4266
I4
sS'moderate'
p4267
I3
sS'accessing'
p4268
I1
sS'power'
p4269
I26
sS'seconds'
p4270
I6
sS'communicate'
p4271
I2
sS'broken'
p4272
I4
sS'roaming'
p4273
I2
sS'exciting'
p4274
I2
sS'throw'
p4275
I3
sS'manufacturer'
p4276
I2
sS'comparison'
p4277
I9
sS'stone'
p4278
I2
sS'ok'
p4279
I17
sS'ace'
p4280
I1
sS'oh'
p4281
I5
sS'instantaneously'
p4282
I2
sS'industry'
p4283
I1
sS'capable'
p4284
I5
sS'favorite'
p4285
I9
sS'mixes'
p4286
I2
sS'stand'
p4287
I8
sS'act'
p4288
I3
sS'mixed'
p4289
I2
sS'luck'
p4290
I2
sS'os'
p4291
I72
sS'processor'
p4292
I14
sS'road'
p4293
I2
sS'graphically'
p4294
I2
sS'amber'
p4295
I7
sS'outlook'
p4296
I18
sS'communication'
p4297
I1
sS'image'
p4298
I4
sS'youd'
p4299
I3
sS'child'
p4300
I1
sS'hes'
p4301
I3
sS'accounts'
p4302
I13
sS'operator'
p4303
I2
sS'lastly'
p4304
I3
sS'nowadays'
p4305
I1
sS'technically'
p4306
I3
sS'breath'
p4307
I2
sS'log'
p4308
I4
sS'area'
p4309
I12
sS'assumed'
p4310
I1
sS'durability'
p4311
I2
sS'hey'
p4312
I3
sS'lol'
p4313
I3
sS'start'
p4314
I23
sS'low'
p4315
I45
sS'sealed'
p4316
I1
sS'complete'
p4317
I4
sS'drains'
p4318
I1
sS'signs'
p4319
I1
sS'buggy'
p4320
I2
sS'delayed'
p4321
I2
sS'sophisticated'
p4322
I2
sS'land'
p4323
I3
sS'unreliable'
p4324
I2
sS'trying'
p4325
I22
sS'buying'
p4326
I24
sS'longer'
p4327
I13
sS'volume'
p4328
I17
sS'pull'
p4329
I4
sS'default'
p4330
I3
sS'darker'
p4331
I1
sS'detailed'
p4332
I2
sS'gone'
p4333
I3
sS'ac'
p4334
I4
sS'required'
p4335
I4
sS'money'
p4336
I55
sS'ad'
p4337
I2
sS'videos'
p4338
I21
sS'certain'
p4339
I10
sS'moved'
p4340
I3
sS'sales'
p4341
I3
sS'general'
p4342
I7
sS'ar'
p4343
I1
sS'daily'
p4344
I15
sS'file'
p4345
I4
sS'av'
p4346
I1
sS'girlfriend'
p4347
I3
sS'watched'
p4348
I1
sS'hound'
p4349
I2
sS'fill'
p4350
I2
sS'again'
p4351
I43
sS'stumbled'
p4352
I2
sS'inflated'
p4353
I2
sS'antenna'
p4354
I4
sS'storage'
p4355
I37
sS'tight'
p4356
I4
sS'someones'
p4357
I1
sS'instantly'
p4358
I2
sS'forcing'
p4359
I1
sS'poor'
p4360
I11
sS'requested'
p4361
I1
sS'poop'
p4362
I2
sS'regardless'
p4363
I1
sS'separate'
p4364
I4
sS'includes'
p4365
I5
sS'important'
p4366
I17
sS'coverage'
p4367
I8
sS'included'
p4368
I15
sS'dropbox'
p4369
I4
sS'unless'
p4370
I13
sS'unresponsive'
p4371
I1
sS'building'
p4372
I2
sS'shipping'
p4373
I10
sS'calls'
p4374
I61
sS'wife'
p4375
I17
sS'invest'
p4376
I1
sS'wifi'
p4377
I143
sS'curve'
p4378
I6
sS'websites'
p4379
I2
sS'having'
p4380
I41
sS'alright'
p4381
I1
sS'overseas'
p4382
I2
sS'starting'
p4383
I4
sS'original'
p4384
I8
sS'wvga'
p4385
I3
sS'forget'
p4386
I5
sS'chinese'
p4387
I3
sS'caused'
p4388
I2
sS'beware'
p4389
I1
sS'lack'
p4390
I25
sS'dollar'
p4391
I7
sS'month'
p4392
I41
sS'browsers'
p4393
I3
sS'follow'
p4394
I1
sS'decisions'
p4395
I2
sS'children'
p4396
I2
sS'causes'
p4397
I3
sS'rd'
p4398
I6
sS'icons'
p4399
I10
sS'tv'
p4400
I1
sS'ts'
p4401
I2
sS'tl'
p4402
I3
sS'program'
p4403
I5
sS'th'
p4404
I6
sS'ti'
p4405
I3
sS'fm'
p4406
I8
sS'enjoying'
p4407
I4
sS'tc'
p4408
I3
sS'tethered'
p4409
I2
sS'activities'
p4410
I3
sS'premium'
p4411
I8
sS'returned'
p4412
I2
sS'song'
p4413
I2
sS'very'
p4414
I273
sS'activated'
p4415
I4
sS'selfies'
p4416
I3
sS'worst'
p4417
I1
sS'decide'
p4418
I5
sS'surprise'
p4419
I3
sS'awful'
p4420
I1
sS'sony'
p4421
I7
sS'manageable'
p4422
I2
sS'condition'
p4423
I4
sS'cable'
p4424
I12
sS'mothers'
p4425
I2
sS'sluggish'
p4426
I1
sS'list'
p4427
I15
sS'large'
p4428
I11
sS'adjust'
p4429
I4
sS'small'
p4430
I38
sS'tel'
p4431
I2
sS'instagram'
p4432
I7
sS'fence'
p4433
I6
sS'harder'
p4434
I6
sS'sync'
p4435
I15
sS'past'
p4436
I8
sS'zero'
p4437
I2
sS'design'
p4438
I15
sS'displays'
p4439
I1
sS'pass'
p4440
I8
sS'link'
p4441
I1
sS'further'
p4442
I5
sS'casual'
p4443
I3
sS'putting'
p4444
I7
sS'dial'
p4445
I3
sS'hesitation'
p4446
I2
sS'sub'
p4447
I2
sS'consumers'
p4448
I1
sS'pinterest'
p4449
I2
sS'deeply'
p4450
I1
sS'sum'
p4451
I2
sS'brief'
p4452
I1
sS'thickness'
p4453
I2
sS'crush'
p4454
I4
sS'version'
p4455
I12
sS'reboots'
p4456
I1
sS'learned'
p4457
I7
sS'method'
p4458
I1
sS'contrast'
p4459
I4
sS'edited'
p4460
I1
sS'full'
p4461
I15
sS'loose'
p4462
I5
sS'simcard'
p4463
I1
sS'supposedly'
p4464
I3
sS'answers'
p4465
I1
sS'hours'
p4466
I17
sS'operating'
p4467
I17
sS'directions'
p4468
I5
sS'november'
p4469
I1
sS'strong'
p4470
I6
sS'search'
p4471
I10
sS'ahead'
p4472
I7
sS'allows'
p4473
I13
sS'experience'
p4474
I37
sS'pics'
p4475
I9
sS'prior'
p4476
I6
sS'amount'
p4477
I16
sS'arent'
p4478
I13
sS'pick'
p4479
I12
sS'action'
p4480
I2
sS'options'
p4481
I17
sS'via'
p4482
I9
sS'family'
p4483
I26
sS'marginal'
p4484
I2
sS'transit'
p4485
I1
sS'speakerphone'
p4486
I6
sS'screens'
p4487
I10
sS'texts'
p4488
I17
sS'indoors'
p4489
I2
sS'hooked'
p4490
I1
sS'pulls'
p4491
I2
sS'illumishield'
p4492
I1
sS'select'
p4493
I4
sS'readily'
p4494
I2
sS'evernote'
p4495
I2
sS'takes'
p4496
I39
sS'zune'
p4497
I7
sS'contains'
p4498
I3
sS'texting'
p4499
I25
sS'finally'
p4500
I11
sS'comparing'
p4501
I3
sS'soundmagic'
p4502
I4
sS'taken'
p4503
I4
sS'preloaded'
p4504
I1
sS'minor'
p4505
I6
sS'more'
p4506
I201
sS'flaw'
p4507
I4
sS'door'
p4508
I2
sS'knows'
p4509
I2
sS'company'
p4510
I3
sS'corrected'
p4511
I1
sS'surprisingly'
p4512
I11
sS'tested'
p4513
I3
sS'stick'
p4514
I8
sS'broke'
p4515
I5
sS'particular'
p4516
I2
sS'known'
p4517
I4
sS'glad'
p4518
I14
sS'hardware'
p4519
I27
sS'none'
p4520
I8
sS'hour'
p4521
I5
sS'sucks'
p4522
I3
sS'installing'
p4523
I1
sS'sent'
p4524
I5
sS'caveat'
p4525
I2
sS'mali'
p4526
I2
sS'beautiful'
p4527
I12
sS'purchases'
p4528
I2
sS'compare'
p4529
I11
sS'computers'
p4530
I4
sS'embarrassing'
p4531
I1
sS'pushes'
p4532
I1
sS'stated'
p4533
I3
sS'share'
p4534
I9
sS'accept'
p4535
I3
sS'states'
p4536
I4
sS'minimum'
p4537
I1
sS'numbers'
p4538
I6
sS'purchased'
p4539
I37
sS'sense'
p4540
I4
sS'sharp'
p4541
I6
sS'airplane'
p4542
I1
sS'lacks'
p4543
I5
sS'information'
p4544
I11
sS'needs'
p4545
I33
sS'processors'
p4546
I2
sS'awkward'
p4547
I4
sS'flawless'
p4548
I3
sS'rather'
p4549
I8
sS'plans'
p4550
I10
sS'acts'
p4551
I2
sS'att'
p4552
I2
sS'everyday'
p4553
I9
sS'maps'
p4554
I53
sS'occasionally'
p4555
I4
sS'delaney'
p4556
I2
sS'iso'
p4557
I2
sS'shouldnt'
p4558
I1
sS'okay'
p4559
I6
sS'tried'
p4560
I15
sS'suppose'
p4561
I2
sS'advice'
p4562
I2
sS'different'
p4563
I34
sS'bough'
p4564
I1
sS'fa'
p4565
I2
sS'tries'
p4566
I5
sS'lighting'
p4567
I5
sS'coming'
p4568
I11
sS'develop'
p4569
I2
sS'response'
p4570
I4
sS'refuse'
p4571
I1
sS'short'
p4572
I11
sS'loud'
p4573
I13
sS'register'
p4574
I3
sS'bugs'
p4575
I2
sS'anytime'
p4576
I2
sS'perhaps'
p4577
I4
sS'responsibility'
p4578
I1
sS'media'
p4579
I21
sS'pleasure'
p4580
I2
sS'lasting'
p4581
I2
sS'playing'
p4582
I18
sS'uninstall'
p4583
I2
sS'help'
p4584
I14
sS'radios'
p4585
I2
sS'developed'
p4586
I3
sS'advised'
p4587
I1
sS'soon'
p4588
I13
sS'trade'
p4589
I1
sS'stylus'
p4590
I1
sS'held'
p4591
I2
sS'isnt'
p4592
I40
sS'paper'
p4593
I2
sS'through'
p4594
I41
sS'replies'
p4595
I1
sS'hell'
p4596
I1
sS'developer'
p4597
I2
sS'zippy'
p4598
I2
sS'style'
p4599
I6
sS'pens'
p4600
I1
sS'pcs'
p4601
I2
sS'actually'
p4602
I35
sS'late'
p4603
I2
sS'systems'
p4604
I6
sS'nifty'
p4605
I2
sS'sen'
p4606
I1
sS'speech'
p4607
I3
sS'might'
p4608
I20
sS'fool'
p4609
I2
sS'evening'
p4610
I1
sS'somebody'
p4611
I2
sS'ya'
p4612
I1
sS'gadget'
p4613
I2
sS'largest'
p4614
I2
sS'noticing'
p4615
I1
sS'number'
p4616
I26
sS'walls'
p4617
I1
sS'yr'
p4618
I2
sS'complain'
p4619
I9
sS'bigger'
p4620
I9
sS'instructions'
p4621
I2
sS'easily'
p4622
I35
sS'hook'
p4623
I2
sS'fully'
p4624
I2
sS'capability'
p4625
I9
sS'micro'
p4626
I43
sS'habits'
p4627
I1
sS'stopped'
p4628
I1
sS'messed'
p4629
I1
sS'die'
p4630
I3
sS'found'
p4631
I47
sS'incompatible'
p4632
I1
sS'difficult'
p4633
I13
sS'button'
p4634
I33
sS'heavy'
p4635
I11
sS'status'
p4636
I2
sS'everyone'
p4637
I16
sS'customization'
p4638
I11
sS'weight'
p4639
I14
sS'needless'
p4640
I2
sS'generation'
p4641
I3
sS'house'
p4642
I11
sS'energy'
p4643
I2
sS'hard'
p4644
I31
sS'reduce'
p4645
I1
sS'idea'
p4646
I7
sS'brother'
p4647
I1
sS'expect'
p4648
I15
sS'operation'
p4649
I3
sS'thing'
p4650
I56
sS'event'
p4651
I3
sS'really'
p4652
I199
sS'magnet'
p4653
I2
sS'solved'
p4654
I3
sS'since'
p4655
I63
sS'research'
p4656
I4
sS'print'
p4657
I2
sS'offline'
p4658
I27
sS'issue'
p4659
I19
sS'pathetic'
p4660
I2
sS'dirt'
p4661
I3
sS'ios'
p4662
I40
sS'friday'
p4663
I1
sS'guess'
p4664
I11
sS'mms'
p4665
I1
sS'pleasant'
p4666
I4
sS'difficulty'
p4667
I3
sS'reason'
p4668
I17
sS'base'
p4669
I2
sS'members'
p4670
I7
sS'imagine'
p4671
I8
sS'put'
p4672
I40
sS'teach'
p4673
I2
sS'swype'
p4674
I3
sS'beginning'
p4675
I1
sS'guy'
p4676
I6
sS'owners'
p4677
I1
sS'launch'
p4678
I3
sS'finland'
p4679
I1
sS'terrible'
p4680
I1
sS'terribly'
p4681
I2
sS'expecting'
p4682
I12
sS'local'
p4683
I11
sS'cdma'
p4684
I1
sS'fallen'
p4685
I2
sS'major'
p4686
I13
sS'cads'
p4687
I2
sS'dont'
p4688
I168
sS'prevent'
p4689
I1
sS'feel'
p4690
I41
sS'indoor'
p4691
I2
sS'unusable'
p4692
I1
sS'fancy'
p4693
I9
sS'feet'
p4694
I1
sS'done'
p4695
I25
sS'effortless'
p4696
I1
sS'says'
p4697
I7
sS'miss'
p4698
I15
sS'razor'
p4699
I2
sS'differ'
p4700
I2
sS'swipe'
p4701
I4
sS'least'
p4702
I13
sS'flimsy'
p4703
I3
sS'wonderful'
p4704
I12
sS'passed'
p4705
I1
sS'ton'
p4706
I2
sS'hundred'
p4707
I9
sS'store'
p4708
I77
sS'headache'
p4709
I1
sS'selling'
p4710
I11
sS'option'
p4711
I24
sS'behind'
p4712
I6
sS'immediate'
p4713
I1
sS'obsolete'
p4714
I3
sS'tracking'
p4715
I3
sS'albums'
p4716
I3
sS'believe'
p4717
I16
sS'kind'
p4718
I14
sS'grew'
p4719
I1
sS'double'
p4720
I3
sS'walmart'
p4721
I20
sS'familys'
p4722
I1
sS'mobiles'
p4723
I13
sS'kindle'
p4724
I6
sS'gps'
p4725
I51
sS'cleaner'
p4726
I1
sS'basically'
p4727
I11
sS'outstanding'
p4728
I6
sS'syncing'
p4729
I5
sS'alongside'
p4730
I1
sS'beforehand'
p4731
I2
sS'randomly'
p4732
I3
sS'alike'
p4733
I2
sS'aged'
p4734
I2
sS'sell'
p4735
I6
sS'built'
p4736
I20
sS'depending'
p4737
I3
sS'check'
p4738
I17
sS'self'
p4739
I4
sS'lit'
p4740
I7
sS'breeze'
p4741
I10
sS'build'
p4742
I18
sS'obviously'
p4743
I6
sS'finding'
p4744
I7
sS'transparent'
p4745
I1
sS'folders'
p4746
I2
sS'play'
p4747
I31
sS'towards'
p4748
I2
sS'customize'
p4749
I6
sS'inconvenience'
p4750
I1
sS'reach'
p4751
I1
sS'affordability'
p4752
I2
sS'react'
p4753
I1
sS'experiences'
p4754
I1
sS'plan'
p4755
I88
sS'significant'
p4756
I2
sS'services'
p4757
I10
sS'extremely'
p4758
I16
sS'appear'
p4759
I3
sS'breaker'
p4760
I8
sS'constructed'
p4761
I2
sS'sturdy'
p4762
I11
sS'mobile'
p4763
I202
sS'clear'
p4764
I31
sS'sometimes'
p4765
I16
sS'cover'
p4766
I33
sS'part'
p4767
I9
sS'clean'
p4768
I5
sS'weigh'
p4769
I2
sS'charged'
p4770
I7
sS'microsoft'
p4771
I50
sS'fono'
p4772
I1
sS'particularly'
p4773
I2
sS'gold'
p4774
I3
sS'fone'
p4775
I1
sS'carefully'
p4776
I2
sS'font'
p4777
I2
sS'fine'
p4778
I32
sS'find'
p4779
I76
sS'costing'
p4780
I3
sS'cell'
p4781
I30
sS'consistently'
p4782
I2
sS'writes'
p4783
I2
sS'heavily'
p4784
I7
sS'rebooting'
p4785
I1
sS'unhappy'
p4786
I1
sS'starters'
p4787
I1
sS'failed'
p4788
I3
sS'email'
p4789
I43
sS'removable'
p4790
I14
sS'knowledgeable'
p4791
I2
sS'circle'
p4792
I1
sS'seller'
p4793
I8
sS'loved'
p4794
I13
sS'touchscreen'
p4795
I13
sS'weve'
p4796
I2
sS'hit'
p4797
I7
sS'scuff'
p4798
I3
sS'landscapes'
p4799
I2
sS'keepass'
p4800
I2
sS'cheaper'
p4801
I13
sS'famous'
p4802
I2
sS'feels'
p4803
I39
sS'valuable'
p4804
I1
sS'international'
p4805
I3
sS'during'
p4806
I4
sS'banner'
p4807
I1
sS'emails'
p4808
I14
sS'restart'
p4809
I4
sS'tmobile'
p4810
I20
sS'generally'
p4811
I6
sS'remove'
p4812
I4
sS'sacrifices'
p4813
I2
sS'gloves'
p4814
I7
sS'common'
p4815
I4
sS'gotten'
p4816
I2
sS'bulky'
p4817
I1
sS'scanning'
p4818
I2
sS'bars'
p4819
I1
sS'set'
p4820
I54
sS'dump'
p4821
I1
sS'enjoyed'
p4822
I4
sS'individual'
p4823
I3
sS'dumb'
p4824
I1
sS'portrait'
p4825
I2
sS'arm'
p4826
I1
sS'pictures'
p4827
I45
sS'wow'
p4828
I9
sS'currently'
p4829
I14
sS'please'
p4830
I4
sS'case'
p4831
I41
sS'won'
p4832
I2
sS'various'
p4833
I6
sS'probably'
p4834
I25
sS'rite'
p4835
I1
sS'weekly'
p4836
I2
sS'conditions'
p4837
I2
sS'supposed'
p4838
I2
sS'available'
p4839
I65
sS'zunehd'
p4840
I2
sS'recently'
p4841
I9
sS'creating'
p4842
I1
sS'missing'
p4843
I14
sS'silicone'
p4844
I2
sS'sold'
p4845
I9
sS'attention'
p4846
I2
sS'interface'
p4847
I23
sS'pissed'
p4848
I1
sS'both'
p4849
I40
sS'toward'
p4850
I1
sS'last'
p4851
I31
sS'license'
p4852
I5
sS'barely'
p4853
I2
sS'sensitive'
p4854
I10
sS'connection'
p4855
I14
sS'became'
p4856
I1
sS'megs'
p4857
I1
sS'alot'
p4858
I3
sS'reply'
p4859
I2
sS'protector'
p4860
I15
sS'whole'
p4861
I13
sS'load'
p4862
I7
sS'liked'
p4863
I8
sS'viber'
p4864
I2
sS'bridge'
p4865
I3
sS'reasons'
p4866
I2
sS'logged'
p4867
I2
sS'whatever'
p4868
I4
sS'iphones'
p4869
I13
sS'simply'
p4870
I13
sS'likes'
p4871
I6
sS'upgrades'
p4872
I2
sS'slots'
p4873
I2
sS'improvement'
p4874
I4
sS'expensive'
p4875
I31
sS'cheapest'
p4876
I4
sS'described'
p4877
I4
sS'pt'
p4878
I4
sS'pu'
p4879
I2
sS'monthly'
p4880
I12
sS'create'
p4881
I4
sS'due'
p4882
I19
sS'pb'
p4883
I2
sS'wasnt'
p4884
I21
sS'dropping'
p4885
I4
sS'complicated'
p4886
I2
sS'brick'
p4887
I1
sS'pm'
p4888
I2
sS'slips'
p4889
I1
sS'compromises'
p4890
I2
sS'ram'
p4891
I18
sS'flight'
p4892
I2
sS'sending'
p4893
I2
sS'fire'
p4894
I1
sS'transferring'
p4895
I2
sS'great'
p4896
I345
sS'gap'
p4897
I2
sS'understand'
p4898
I9
sS'representative'
p4899
I1
sS'demand'
p4900
I1
sS'prices'
p4901
I5
sS'dialing'
p4902
I1
sS'handling'
p4903
I2
sS'frozen'
p4904
I2
sS'straight'
p4905
I13
sS'expanded'
p4906
I3
sS'budget'
p4907
I39
sS'admire'
p4908
I1
sS'receive'
p4909
I6
sS'while'
p4910
I48
sS'replaced'
p4911
I5
sS'smart'
p4912
I121
sS'behavior'
p4913
I2
sS'fun'
p4914
I17
sS'guide'
p4915
I1
sS'theres'
p4916
I16
sS'grip'
p4917
I2
sS'pound'
p4918
I2
sS'hoping'
p4919
I5
sS'backing'
p4920
I2
sS'calculator'
p4921
I1
sS'drawbacks'
p4922
I5
sS'rip'
p4923
I3
sS'moto'
p4924
I3
sS'disappointing'
p4925
I2
sS'reads'
p4926
I4
sS'itself'
p4927
I15
sS'beautifully'
p4928
I4
sS'ready'
p4929
I12
sS'rid'
p4930
I2
sS'chase'
p4931
I2
sS'funny'
p4932
I3
sS'anymore'
p4933
I4
sS'notch'
p4934
I3
sS'virtually'
p4935
I2
sS'grand'
p4936
I2
sS'higher'
p4937
I19
sS'development'
p4938
I2
sS'arrives'
p4939
I1
sS'temporary'
p4940
I2
sS'keys'
p4941
I2
sS'painless'
p4942
I1
sS'yesterday'
p4943
I3
sS'flows'
p4944
I3
sS'moment'
p4945
I1
sS'levels'
p4946
I2
sS'uses'
p4947
I18
sS'purpose'
p4948
I5
sS'robust'
p4949
I1
sS'recent'
p4950
I5
sS'early'
p4951
I2
sS'lower'
p4952
I7
sS'task'
p4953
I7
sS'picky'
p4954
I4
sS'database'
p4955
I2
sS'anybody'
p4956
I2
sS'without'
p4957
I69
sS'person'
p4958
I12
sS'priced'
p4959
I9
sS'edge'
p4960
I1
sS'savvy'
p4961
I8
sS'entry'
p4962
I15
sS'gsm'
p4963
I5
sS'spend'
p4964
I17
sS'sims'
p4965
I3
sS'things'
p4966
I76
sS'detract'
p4967
I1
sS'ergonomic'
p4968
I2
sS'competitive'
p4969
I1
sS'shape'
p4970
I2
sS'adjustable'
p4971
I5
sS'questions'
p4972
I6
sS'using'
p4973
I98
sS'reviewer'
p4974
I3
sS'alternative'
p4975
I10
sS'apple'
p4976
I35
sS'letting'
p4977
I1
sS'loading'
p4978
I3
sS'dslr'
p4979
I2
sS'tablet'
p4980
I21
sS'signals'
p4981
I2
sS'internal'
p4982
I17
sS'parents'
p4983
I4
sS'location'
p4984
I12
sS'snap'
p4985
I9
sS'input'
p4986
I2
sS'remaining'
p4987
I2
sS'surprised'
p4988
I18
sS'useless'
p4989
I2
sS'ridiculously'
p4990
I2
sS'complaint'
p4991
I4
sS'manage'
p4992
I2
sS'march'
p4993
I2
sS'complains'
p4994
I2
sS'emergency'
p4995
I3
sS'format'
p4996
I1
sS'big'
p4997
I54
sS'showing'
p4998
I1
sS'unlimited'
p4999
I21
sS'game'
p5000
I12
sS'motorola'
p5001
I2
sS'damage'
p5002
I2
sS'bit'
p5003
I33
sS'like'
p5004
I271
sS'skeptical'
p5005
I3
sS'outright'
p5006
I3
sS'rotate'
p5007
I1
sS'lost'
p5008
I3
sS'semi'
p5009
I2
sS'signal'
p5010
I16
sS'ignore'
p5011
I1
sS'communications'
p5012
I1
sS'continue'
p5013
I5
sS'popular'
p5014
I8
sS'stylish'
p5015
I7
sS'fault'
p5016
I3
sS'essential'
p5017
I4
sS'google'
p5018
I39
sS'often'
p5019
I9
sS'absolutely'
p5020
I22
sS'arrived'
p5021
I9
sS'streaming'
p5022
I8
sS'added'
p5023
I11
sS'palm'
p5024
I2
sS'pricing'
p5025
I2
sS'sprint'
p5026
I7
sS'server'
p5027
I3
sS'facing'
p5028
I27
sS'retry'
p5029
I2
sS'contacts'
p5030
I19
sS'decision'
p5031
I6
sS'pros'
p5032
I30
sS'integration'
p5033
I6
sS'per'
p5034
I8
sS'prop'
p5035
I2
sS'pen'
p5036
I4
sS'eliminate'
p5037
I1
sS'minimal'
p5038
I2
sS'blackberry'
p5039
I9
sS'run'
p5040
I21
sS'bc'
p5041
I2
sS'bl'
p5042
I2
sS'booklet'
p5043
I1
sS'processing'
p5044
I7
sS'bi'
p5045
I1
sS'refused'
p5046
I1
sS'restrictive'
p5047
I2
sS'step'
p5048
I11
sS'negatives'
p5049
I3
sS'lasts'
p5050
I9
sS'usb'
p5051
I24
sS'unused'
p5052
I2
sS'hidden'
p5053
I2
sS'wouldnt'
p5054
I10
sS'netflix'
p5055
I5
sS'ids'
p5056
I1
sS'range'
p5057
I21
sS'charm'
p5058
I4
sS'wanna'
p5059
I3
sS'block'
p5060
I1
sS'seeing'
p5061
I3
sS'garbage'
p5062
I1
sS'techie'
p5063
I4
sS'within'
p5064
I10
sS'retailer'
p5065
I1
sS'nothing'
p5066
I28
sS'primarily'
p5067
I2
sS'impressed'
p5068
I21
sS'few'
p5069
I58
sS'spending'
p5070
I5
sS'question'
p5071
I4
sS'specifically'
p5072
I2
sS'custom'
p5073
I5
sS'ordered'
p5074
I16
sS'almost'
p5075
I25
sS'camera'
p5076
I222
sS'downloadable'
p5077
I2
sS'forward'
p5078
I12
sS'twitter'
p5079
I11
sS'opens'
p5080
I1
sS'manufacture'
p5081
I1
sS'plunge'
p5082
I2
sS'elsewhere'
p5083
I1
sS'inches'
p5084
I4
sS'adjusting'
p5085
I2
sS'buttery'
p5086
I2
sS'hoped'
p5087
I1
sS'properly'
p5088
I3
sS'skip'
p5089
I2
sS'library'
p5090
I2
sS'newer'
p5091
I8
sS'line'
p5092
I30
sS'considerable'
p5093
I2
sS'posted'
p5094
I3
sS'directed'
p5095
I1
sS'consist'
p5096
I2
sS'restarted'
p5097
I3
sS'sounds'
p5098
I7
sS'ur'
p5099
I2
sS'um'
p5100
I1
sS'paired'
p5101
I4
sS'un'
p5102
I1
sS'customers'
p5103
I6
sS'unlock'
p5104
I13
sS'similar'
p5105
I10
sS'called'
p5106
I11
sS'natively'
p5107
I1
sS'specified'
p5108
I1
sS'listening'
p5109
I4
sS'doesn'
p5110
I6
sS'package'
p5111
I4
sS'single'
p5112
I8
sS'chat'
p5113
I8
sS'denying'
p5114
I1
sS'rainx'
p5115
I2
sS'plugged'
p5116
I4
sS'occasional'
p5117
I2
sS'towers'
p5118
I1
sS'points'
p5119
I5
sS'functionality'
p5120
I13
sS'recognition'
p5121
I5
sS'income'
p5122
I2
sS'nice'
p5123
I89
sS'draw'
p5124
I2
sS'users'
p5125
I16
sS'pureness'
p5126
I2
sS'problems'
p5127
I30
sS'prepared'
p5128
I1
sS'lens'
p5129
I2
sS'allowing'
p5130
I2
sS'utterly'
p5131
I1
sS'samsungs'
p5132
I1
sS'earphones'
p5133
I1
sS'ago'
p5134
I11
sS'suffers'
p5135
I1
sS'happier'
p5136
I3
sS'practically'
p5137
I5
sS'age'
p5138
I4
sS'unlocked'
p5139
I10
sS'youtube'
p5140
I9
sS'fresh'
p5141
I6
sS'requires'
p5142
I5
sS'scroll'
p5143
I2
sS'once'
p5144
I39
sS'code'
p5145
I3
sS'gs'
p5146
I2
sS'scratch'
p5147
I3
sS'results'
p5148
I2
sS'existing'
p5149
I2
sS'enjoyable'
p5150
I2
sS'antennas'
p5151
I1
sS'kyocera'
p5152
I3
sS'gb'
p5153
I59
sS'issues'
p5154
I17
sS'seemed'
p5155
I9
sS'compact'
p5156
I1
sS'cheapy'
p5157
I2
sS'concerned'
p5158
I3
sS'itll'
p5159
I2
sS'young'
p5160
I5
sS'send'
p5161
I19
sS'suits'
p5162
I2
sS'languages'
p5163
I1
sS'blaze'
p5164
I3
sS'stable'
p5165
I3
sS'weather'
p5166
I5
sS'suite'
p5167
I2
sS'dislike'
p5168
I3
sS'include'
p5169
I11
sS'friendly'
p5170
I23
sS'indicating'
p5171
I1
sS'uploaded'
p5172
I1
sS'ty'
p5173
I4
sS'labels'
p5174
I1
sS'presently'
p5175
I1
sS'outside'
p5176
I9
sS'listed'
p5177
I3
sS'continues'
p5178
I2
sS'facebook'
p5179
I28
sS'cellular'
p5180
I10
sS'telling'
p5181
I1
sS'wipe'
p5182
I3
sS'categories'
p5183
I2
sS'arrange'
p5184
I3
sS'entire'
p5185
I4
sS'roll'
p5186
I3
sS'notes'
p5187
I3
sS'attempts'
p5188
I1
sS'fewer'
p5189
I2
sS'try'
p5190
I29
sS'kit'
p5191
I6
sS'havent'
p5192
I22
sS'deleting'
p5193
I1
sS'noted'
p5194
I5
sS'limitations'
p5195
I6
sS'smaller'
p5196
I13
sS'overshadows'
p5197
I2
sS'tinny'
p5198
I2
sS'jump'
p5199
I2
sS'video'
p5200
I17
sS'traveling'
p5201
I1
sS'picked'
p5202
I10
sS'download'
p5203
I35
sS'click'
p5204
I10
sS'flagship'
p5205
I2
sS'plays'
p5206
I5
sS'unavailable'
p5207
I1
sS'rate'
p5208
I7
sS'giving'
p5209
I4
sS'saw'
p5210
I7
sS'networks'
p5211
I2
sS'access'
p5212
I27
sS'paying'
p5213
I11
sS'waiting'
p5214
I8
sS'experiment'
p5215
I2
sS'renders'
p5216
I1
sS'intrusive'
p5217
I1
sS'exercise'
p5218
I2
sS'led'
p5219
I6
sS'chose'
p5220
I4
sS'degree'
p5221
I2
sS'exchange'
p5222
I2
sS'highly'
p5223
I30
sS'following'
p5224
I2
sS'explore'
p5225
I5
sS'let'
p5226
I25
sS'others'
p5227
I11
sS'convert'
p5228
I2
sS'drops'
p5229
I4
sS'metro'
p5230
I4
sS'technical'
p5231
I2
sS'across'
p5232
I2
sS'larger'
p5233
I6
sS'leaving'
p5234
I2
sS'products'
p5235
I9
sS'situations'
p5236
I2
sS'opinion'
p5237
I11
sS'makes'
p5238
I43
sS'ruin'
p5239
I1
sS'involves'
p5240
I2
sS'thats'
p5241
I33
sS'named'
p5242
I2
sS'firefox'
p5243
I2
sS'addresses'
p5244
I4
sS'win'
p5245
I11
sS'app'
p5246
I139
sS'siri'
p5247
I3
sS'dedicated'
p5248
I5
sS'wit'
p5249
I1
sS'apn'
p5250
I2
sS'apply'
p5251
I2
sS'cloud'
p5252
I6
sS'confidence'
p5253
I3
sS'fee'
p5254
I4
sS'crap'
p5255
I5
sS'stream'
p5256
I2
sS'usa'
p5257
I4
sS'remains'
p5258
I1
sS'management'
p5259
I2
sS'seamless'
p5260
I3
sS'next'
p5261
I14
sS'nexus'
p5262
I37
sS'doubt'
p5263
I3
sS'means'
p5264
I18
sS'chip'
p5265
I6
sS'sort'
p5266
I4
sS'popped'
p5267
I3
sS'pretty'
p5268
I72
sS'started'
p5269
I6
sS'becomes'
p5270
I2
sS'factor'
p5271
I3
sS'onedrive'
p5272
I2
sS'visibility'
p5273
I2
sS'folks'
p5274
I1
sS'baby'
p5275
I2
sS'gladly'
p5276
I1
sS'folder'
p5277
I2
sS'customer'
p5278
I21
sS'account'
p5279
I26
sS'locks'
p5280
I2
sS'clients'
p5281
I1
sS'prompts'
p5282
I2
sS'anywhere'
p5283
I6
sS'obvious'
p5284
I3
sS'thin'
p5285
I7
sS'meet'
p5286
I4
sS'closing'
p5287
I1
sS'unread'
p5288
I1
sS'didnt'
p5289
I54
sS'proof'
p5290
I1
sS'control'
p5291
I7
sS'proprietary'
p5292
I1
sS'slip'
p5293
I3
sS'process'
p5294
I4
sS'lock'
p5295
I5
sS'slim'
p5296
I3
sS'tax'
p5297
I4
sS'pieces'
p5298
I3
sS'high'
p5299
I53
sS'effectively'
p5300
I2
sS'hotmail'
p5301
I4
sS'pulling'
p5302
I3
sS'bend'
p5303
I1
sS'tab'
p5304
I3
sS'tan'
p5305
I1
sS'expandable'
p5306
I8
sS'united'
p5307
I1
sS'defective'
p5308
I1
sS'lame'
p5309
I2
sS'holds'
p5310
I1
sS'lamp'
p5311
I2
sS'instead'
p5312
I9
sS'sim'
p5313
I83
sS'stock'
p5314
I4
sS'specifications'
p5315
I2
sS'watch'
p5316
I6
sS'waters'
p5317
I2
sS'youve'
p5318
I2
sS'collection'
p5319
I4
sS'abuse'
p5320
I1
sS'tier'
p5321
I2
sS'ties'
p5322
I1
sS'tmobiles'
p5323
I3
sS'efficiently'
p5324
I2
sS'realized'
p5325
I6
sS'tethering'
p5326
I7
sS'backup'
p5327
I14
sS'bing'
p5328
I4
sS'lines'
p5329
I3
sS'shutting'
p5330
I2
sS'honestly'
p5331
I12
sS'allow'
p5332
I9
sS'furious'
p5333
I1
sS'areas'
p5334
I2
sS'compass'
p5335
I3
sS'researching'
p5336
I1
sS'whilst'
p5337
I2
sS'including'
p5338
I11
sS'looks'
p5339
I30
sS'mentioned'
p5340
I8
sS'freezes'
p5341
I3
sS'galaxy'
p5342
I49
sS'bunch'
p5343
I3
sS'perfect'
p5344
I41
sS'superior'
p5345
I6
sS'le'
p5346
I3
sS'la'
p5347
I2
sS'chosen'
p5348
I3
sS'lo'
p5349
I2
sS'll'
p5350
I10
sS'ships'
p5351
I2
sS'li'
p5352
I3
sS'lt'
p5353
I3
sS'willing'
p5354
I2
sS'activate'
p5355
I8
sS'choose'
p5356
I15
sS'covered'
p5357
I1
sS'pixel'
p5358
I2
sS'dad'
p5359
I6
sS'designs'
p5360
I2
sS'crash'
p5361
I3
sS'greater'
p5362
I2
sS'docs'
p5363
I1
sS'nokia'
p5364
I272
sS'flew'
p5365
I2
sS'functional'
p5366
I4
sS'mention'
p5367
I4
sS'cutting'
p5368
I2
sS'andriod'
p5369
I3
sS'hands'
p5370
I11
sS'front'
p5371
I53
sS'rotation'
p5372
I1
sS'realize'
p5373
I3
sS'nfc'
p5374
I4
sS'auto'
p5375
I8
sS'edit'
p5376
I4
sS'warned'
p5377
I1
sS'slide'
p5378
I1
sS'doesnt'
p5379
I57
sS'fiddle'
p5380
I2
sS'mode'
p5381
I8
sS'truth'
p5382
I2
sS'crossing'
p5383
I1
sS'experienced'
p5384
I5
sS'cry'
p5385
I2
sS'sdcard'
p5386
I2
sS'attachments'
p5387
I1
sS'beginner'
p5388
I4
sS'doing'
p5389
I8
sS'artists'
p5390
I2
sS'staying'
p5391
I2
sS'related'
p5392
I1
sS'bluetooth'
p5393
I15
sS'books'
p5394
I1
sS'static'
p5395
I1
sS'variety'
p5396
I7
sS'exceeded'
p5397
I4
sS'special'
p5398
I3
sS'category'
p5399
I2
sS'respects'
p5400
I1
sS'bag'
p5401
I1
sS'res'
p5402
I2
sS'rep'
p5403
I3
sS'reboot'
p5404
I5
sS'performs'
p5405
I6
sS'electronics'
p5406
I4
sS'utility'
p5407
I2
sS'supports'
p5408
I5
sS'integrated'
p5409
I3
sS'red'
p5410
I3
sS'shut'
p5411
I2
sS'phoneand'
p5412
I2
sS'ipod'
p5413
I23
sS'completely'
p5414
I8
sS'ect'
p5415
I2
sS'tied'
p5416
I2
sS'latest'
p5417
I10
sS'anyhow'
p5418
I2
sS'business'
p5419
I6
sS'interaction'
p5420
I1
sS'steal'
p5421
I1
sS'route'
p5422
I4
sS'messaging'
p5423
I8
sS'ask'
p5424
I6
sS'keep'
p5425
I26
sS'keen'
p5426
I2
sS'length'
p5427
I3
sS'lte'
p5428
I15
sS'removing'
p5429
I2
sS'retail'
p5430
I2
sS'plastics'
p5431
I2
sS'blown'
p5432
I7
sS'plasticy'
p5433
I2
sS'powerful'
p5434
I3
sS'scene'
p5435
I1
sS'owned'
p5436
I21
sS'fits'
p5437
I12
sS'weak'
p5438
I9
sS'lagging'
p5439
I3
sS'mah'
p5440
I3
sS'owner'
p5441
I3
sS'blows'
p5442
I3
sS'noticed'
p5443
I3
sS'quality'
p5444
I120
sS'reliable'
p5445
I10
sS'owning'
p5446
I1
sS'miserably'
p5447
I1
sS'playlist'
p5448
I3
sS'ancient'
p5449
I2
sS'reference'
p5450
I1
sS'ordering'
p5451
I2
sS'tmoble'
p5452
I2
sS'durable'
p5453
I10
sS'system'
p5454
I46
sS'ports'
p5455
I1
sS'messing'
p5456
I1
sS'final'
p5457
I2
sS'painful'
p5458
I2
sS'shell'
p5459
I2
sS'stars'
p5460
I14
sS'exactly'
p5461
I5
sS'lists'
p5462
I2
sS'slider'
p5463
I2
sS'july'
p5464
I1
sS'overwhelming'
p5465
I2
sS'updating'
p5466
I2
sS'ipad'
p5467
I7
sS'unexpectedly'
p5468
I4
sS'bother'
p5469
I3
sS'bed'
p5470
I3
sS'limiting'
p5471
I2
sS'frugal'
p5472
I2
sS'loves'
p5473
I25
sS'light'
p5474
I49
sS'bet'
p5475
I1
sS'exhibit'
p5476
I11
sS'teenagers'
p5477
I2
sS'comfortable'
p5478
I5
sS'comfortably'
p5479
I2
sS'close'
p5480
I16
sS'need'
p5481
I132
sS'apparently'
p5482
I2
sS'linked'
p5483
I4
sS'screw'
p5484
I3
sS'microphone'
p5485
I3
sS'documents'
p5486
I4
sS'min'
p5487
I6
sS'mic'
p5488
I2
sS'able'
p5489
I48
sS'si'
p5490
I1
sS'purchasing'
p5491
I3
sS'contact'
p5492
I6
sS'mix'
p5493
I1
sS'relatives'
p5494
I3
sS'sn'
p5495
I1
sS'worldwide'
p5496
I2
sS'beyond'
p5497
I2
sS'camper'
p5498
I2
sS'flipboard'
p5499
I2
sS'connected'
p5500
I10
sS'cracking'
p5501
I1
sS'device'
p5502
I76
sS'segment'
p5503
I2
sS'payment'
p5504
I4
sS'cellphone'
p5505
I9
sS'refreshing'
p5506
I2
sS'stronger'
p5507
I2
sS'face'
p5508
I3
sS'looked'
p5509
I4
sS'mechanical'
p5510
I2
sS'typical'
p5511
I3
sS'normally'
p5512
I3
sS'fact'
p5513
I23
sS'impression'
p5514
I2
sS'terrific'
p5515
I4
sS'cute'
p5516
I2
sS'text'
p5517
I40
sS'supported'
p5518
I2
sS'anyway'
p5519
I12
sS'connect'
p5520
I10
sS'bring'
p5521
I3
sS'planning'
p5522
I6
sS'thicker'
p5523
I3
sS'staff'
p5524
I1
sS'pause'
p5525
I3
sS'based'
p5526
I4
sS'knowledge'
p5527
I2
sS'winner'
p5528
I3
sS'downloading'
p5529
I6
sS'controls'
p5530
I6
sS'should'
p5531
I36
sS'buttons'
p5532
I25
sS'score'
p5533
I2
sS'bogged'
p5534
I2
sS'thousands'
p5535
I5
sS'inferior'
p5536
I2
sS'meant'
p5537
I2
sS'move'
p5538
I11
sS'handle'
p5539
I4
sS'watching'
p5540
I4
sS'beat'
p5541
I22
sS'familiar'
p5542
I9
sS'backlight'
p5543
I1
sS'overall'
p5544
I39
sS'lucky'
p5545
I2
sS'ones'
p5546
I19
sS'words'
p5547
I3
sS'werent'
p5548
I2
sS'buyer'
p5549
I1
sS'scrolling'
p5550
I3
sS'endless'
p5551
I2
sS'gray'
p5552
I1
sS'conclusion'
p5553
I7
sS'ended'
p5554
I5
sS'fixes'
p5555
I3
sS'taxes'
p5556
I2
sS'calling'
p5557
I65
sS'stuff'
p5558
I15
sS'cr'
p5559
I3
sS'wish'
p5560
I20
sS'grab'
p5561
I3
sS'fixed'
p5562
I8
sS'prepaid'
p5563
I15
sS'generations'
p5564
I3
sS'view'
p5565
I11
sS'knowing'
p5566
I4
sS'btw'
p5567
I1
sS'exists'
p5568
I1
sS'smooth'
p5569
I26
sS'frame'
p5570
I1
sS'freeze'
p5571
I2
sS'computer'
p5572
I26
sS'tunein'
p5573
I3
sS'packed'
p5574
I4
sS'gmail'
p5575
I5
sS'placed'
p5576
I6
sS'eve'
p5577
I2
sS'tend'
p5578
I5
sS'initially'
p5579
I2
sS'written'
p5580
I2
sS'difficulties'
p5581
I1
sS'closed'
p5582
I1
sS'horrible'
p5583
I4
sS'progress'
p5584
I1
sS'youll'
p5585
I21
sS'interfaces'
p5586
I2
sS'bought'
p5587
I115
sS'ends'
p5588
I1
sS'ability'
p5589
I19
sS'lg'
p5590
I10
sS'joy'
p5591
I2
sS'deliver'
p5592
I3
sS'personalize'
p5593
I2
sS'job'
p5594
I15
sS'key'
p5595
I5
sS'sitting'
p5596
I1
sS'synced'
p5597
I3
sS'precious'
p5598
I2
sS'optional'
p5599
I2
sS'legit'
p5600
I1
sS'monitor'
p5601
I3
sS'figured'
p5602
I4
sS'limits'
p5603
I5
sS'taking'
p5604
I15
sS'etc'
p5605
I35
sS'admit'
p5606
I3
sS'streams'
p5607
I6
sS'npr'
p5608
I2
sS'otherwise'
p5609
I7
sS'comment'
p5610
I1
sS'strongly'
p5611
I1
sS'ci'
p5612
I2
sS'relevant'
p5613
I2
sS'co'
p5614
I1
sS'toilet'
p5615
I1
sS'wall'
p5616
I4
sS'ca'
p5617
I3
sS'unbelievable'
p5618
I3
sS'walk'
p5619
I1
sS'bump'
p5620
I2
sS'cs'
p5621
I1
sS'respect'
p5622
I1
sS'cu'
p5623
I1
sS'quit'
p5624
I2
sS'protective'
p5625
I1
sS'yay'
p5626
I3
sS'powered'
p5627
I1
sS'addition'
p5628
I4
sS'decent'
p5629
I33
sS'shame'
p5630
I1
sS'lu'
p5631
I1
sS'slowly'
p5632
I2
sS'ship'
p5633
I1
sS'waste'
p5634
I3
sS'penny'
p5635
I1
sS'verizon'
p5636
I14
sS'tap'
p5637
I4
sS'finished'
p5638
I1
sS'angles'
p5639
I1
sS'graphics'
p5640
I6
sS'kicks'
p5641
I1
sS'improved'
p5642
I2
sS'garmin'
p5643
I2
sS'present'
p5644
I3
sS'multi'
p5645
I3
sS'smartphones'
p5646
I25
sS'hesitant'
p5647
I1
sS'unlike'
p5648
I7
sS'plain'
p5649
I2
sS'nd'
p5650
I10
sS'appearance'
p5651
I2
sS'value'
p5652
I35
sS'choices'
p5653
I1
sS'reliability'
p5654
I1
sS'encountered'
p5655
I2
sS'texas'
p5656
I1
sS'owns'
p5657
I2
sS'balance'
p5658
I3
sS'cutter'
p5659
I2
sS'frustrating'
p5660
I7
sS've'
p5661
I3
sS'manually'
p5662
I5
sS'mytouch'
p5663
I2
sS'insanely'
p5664
I2
sS'thus'
p5665
I2
sS'site'
p5666
I5
sS'surface'
p5667
I4
sS'helped'
p5668
I3
sS'draining'
p5669
I2
sS'vs'
p5670
I5
sS'dual'
p5671
I8
sS'lightweight'
p5672
I8
sS'bucks'
p5673
I10
sS'productivity'
p5674
I1
sS'generic'
p5675
I4
sS'began'
p5676
I4
sS'strange'
p5677
I3
sS'speaker'
p5678
I28
sS'conversations'
p5679
I2
sS'inch'
p5680
I9
sS'party'
p5681
I9
sS'android'
p5682
I199
sS'gets'
p5683
I21
sS'gamer'
p5684
I3
sS'practice'
p5685
I2
sS'upon'
p5686
I1
sS'ion'
p5687
I4
sS'student'
p5688
I2
sS'frequently'
p5689
I5
sS'expand'
p5690
I2
sS'pleasantly'
p5691
I2
sS'argue'
p5692
I1
sS'off'
p5693
I69
sS'center'
p5694
I3
sS'nonetheless'
p5695
I3
sS'thought'
p5696
I27
sS'command'
p5697
I1
sS'sets'
p5698
I1
sS'position'
p5699
I2
sS'audio'
p5700
I11
sS'loss'
p5701
I2
sS'usual'
p5702
I3
sS'rocker'
p5703
I2
sS'upgraded'
p5704
I6
sS'stores'
p5705
I3
sS'less'
p5706
I48
sS'accurate'
p5707
I4
sS'fingerprint'
p5708
I2
sS'sources'
p5709
I1
sS'batteries'
p5710
I8
sS'stored'
p5711
I4
sS'advertised'
p5712
I2
sS'tone'
p5713
I2
sS'rest'
p5714
I3
sS'nokias'
p5715
I24
sS'flashlight'
p5716
I4
sS'web'
p5717
I35
sS'rapid'
p5718
I1
sS'ads'
p5719
I1
sS'podcast'
p5720
I4
sS'point'
p5721
I28
sS'sky'
p5722
I3
sS'capabilities'
p5723
I3
sS'rebate'
p5724
I3
sS'simple'
p5725
I32
sS'add'
p5726
I21
sS'attractive'
p5727
I2
sS'crack'
p5728
I2
sS'usage'
p5729
I17
sS'ado'
p5730
I1
sS'match'
p5731
I4
sS'identical'
p5732
I3
sS'advertising'
p5733
I1
sS'checking'
p5734
I8
sS'fyi'
p5735
I3
sS'five'
p5736
I6
sS'know'
p5737
I56
sS'press'
p5738
I8
sS'immediately'
p5739
I7
sS'microsd'
p5740
I16
sS'toe'
p5741
I2
sS'insert'
p5742
I1
sS'trash'
p5743
I1
sS'crisp'
p5744
I2
sS'helpful'
p5745
I2
sS'success'
p5746
I2
sS'sizes'
p5747
I2
sS'ring'
p5748
I7
sS'candy'
p5749
I4
sS'lose'
p5750
I3
sS'become'
p5751
I7
sS'works'
p5752
I113
sS'soft'
p5753
I3
sS'page'
p5754
I10
sS'replacement'
p5755
I11
sS'accessible'
p5756
I4
sS'drop'
p5757
I12
sS'smoothly'
p5758
I7
sS'scared'
p5759
I1
sS'searching'
p5760
I7
sS'alive'
p5761
I3
sS'tumblr'
p5762
I2
sS'platforms'
p5763
I2
sS'daylight'
p5764
I2
sS'shes'
p5765
I2
sS'proper'
p5766
I3
sS'home'
p5767
I32
sS'liking'
p5768
I2
sS'sammy'
p5769
I2
sS'transport'
p5770
I2
sS'happens'
p5771
I4
sS'throughout'
p5772
I3
sS'literally'
p5773
I3
sS'avoid'
p5774
I1
sS'slipping'
p5775
I1
sS'snappy'
p5776
I8
sS'does'
p5777
I117
sS'economical'
p5778
I2
sS'assuming'
p5779
I1
sS'blurry'
p5780
I3
sS'tmo'
p5781
I2
sS'locate'
p5782
I2
sS'slower'
p5783
I1
sS'slight'
p5784
I8
sS'expansion'
p5785
I3
sS'although'
p5786
I24
sS'worthy'
p5787
I1
sS'stay'
p5788
I4
sS'periodically'
p5789
I1
sS'stage'
p5790
I2
sS'sister'
p5791
I1
sS'lifestyle'
p5792
I2
sS'extension'
p5793
I1
sS'getting'
p5794
I58
sS'recognized'
p5795
I1
sS'compatible'
p5796
I5
sS'perks'
p5797
I2
sS'carrier'
p5798
I14
sS'whistles'
p5799
I7
sS'introduced'
p5800
I2
sS'software'
p5801
I26
sS'warranty'
p5802
I5
sS'own'
p5803
I18
sS'additionally'
p5804
I2
sS'previously'
p5805
I9
sS'tag'
p5806
I4
sS'skydrive'
p5807
I10
sS'headphone'
p5808
I2
sS'brands'
p5809
I2
sS'square'
p5810
I3
sS'tiny'
p5811
I2
sS'theyd'
p5812
I1
sS'couldnt'
p5813
I14
sS'eh'
p5814
I2
sS'godsend'
p5815
I2
sS'additional'
p5816
I3
sS'pc'
p5817
I18
sS'transfer'
p5818
I8
sS'apps'
p5819
I298
sS'protectors'
p5820
I3
sS'intention'
p5821
I1
sS'frustration'
p5822
I2
sS'biggest'
p5823
I7
sS'detrimental'
p5824
I1
sS'yrs'
p5825
I2
sS'function'
p5826
I17
sS'tricky'
p5827
I2
sS'buy'
p5828
I77
sS'pressed'
p5829
I1
sS'hr'
p5830
I2
sS'brand'
p5831
I13
sS'holstering'
p5832
I2
sS'delivery'
p5833
I5
sS'construction'
p5834
I5
sS'ho'
p5835
I2
sS'ha'
p5836
I1
sS'bug'
p5837
I3
sS'hd'
p5838
I9
sS'count'
p5839
I4
sS'made'
p5840
I34
sS'wise'
p5841
I2
sS'snagged'
p5842
I2
sS'places'
p5843
I3
sS'whether'
p5844
I7
sS'ecosystem'
p5845
I3
sS'official'
p5846
I3
sS'lync'
p5847
I2
sS'flip'
p5848
I6
sS'record'
p5849
I1
sS'below'
p5850
I8
sS'converted'
p5851
I2
sS'limit'
p5852
I2
sS'picks'
p5853
I3
sS'problem'
p5854
I43
sS'piece'
p5855
I1
sS'minutes'
p5856
I15
sS'display'
p5857
I19
sS'marketplace'
p5858
I2
sS'replying'
p5859
I1
sS'pin'
p5860
I5
sS'recognize'
p5861
I1
sS'handset'
p5862
I6
sS'pic'
p5863
I1
sS'ins'
p5864
I2
sS'sibling'
p5865
I2
sS'beats'
p5866
I9
sS'worse'
p5867
I4
sS'inc'
p5868
I2
sS'functions'
p5869
I19
sS'compared'
p5870
I25
sS'improving'
p5871
I2
sS'incredible'
p5872
I7
sS'boot'
p5873
I1
sS'detail'
p5874
I2
sS'lately'
p5875
I1
sS'book'
p5876
I3
sS'compares'
p5877
I4
sS'details'
p5878
I3
sS'sick'
p5879
I2
sS'outlet'
p5880
I1
sS'incredibly'
p5881
I2
sS'guys'
p5882
I1
sS'canada'
p5883
I2
sS'junk'
p5884
I1
sS'kinds'
p5885
I3
sS'ahem'
p5886
I2
sS'chance'
p5887
I4
sS'kinda'
p5888
I3
sS'else'
p5889
I20
sS'friends'
p5890
I13
sS'searches'
p5891
I2
sS'yelp'
p5892
I1
sS'samsung'
p5893
I43
sS'resolution'
p5894
I17
sS'lasted'
p5895
I2
sS'cpu'
p5896
I3
sS'extras'
p5897
I2
sS'integrates'
p5898
I2
sS'augmented'
p5899
I3
stp5900
Rp5901
sS'positive_lines'
p5902
I500
sS'pos_unigram_corpus_length'
p5903
I33642
sb.